
tmp0.o:     file format elf64-littleaarch64

Contents of section .group:
 0000 01000000 47000000                    ....G...        
Contents of section .group:
 0000 01000000 48000000                    ....H...        
Contents of section .group:
 0000 01000000 49000000                    ....I...        
Contents of section .group:
 0000 01000000 4a000000                    ....J...        
Contents of section .group:
 0000 01000000 4b000000                    ....K...        
Contents of section .group:
 0000 01000000 4c000000                    ....L...        
Contents of section .group:
 0000 01000000 4d000000                    ....M...        
Contents of section .group:
 0000 01000000 4e000000                    ....N...        
Contents of section .group:
 0000 01000000 4f000000                    ....O...        
Contents of section .group:
 0000 01000000 51000000 52000000           ....Q...R...    
Contents of section .group:
 0000 01000000 53000000                    ....S...        
Contents of section .group:
 0000 01000000 54000000 55000000           ....T...U...    
Contents of section .group:
 0000 01000000 56000000 57000000           ....V...W...    
Contents of section .group:
 0000 01000000 58000000                    ....X...        
Contents of section .group:
 0000 01000000 59000000 5a000000           ....Y...Z...    
Contents of section .group:
 0000 01000000 5b000000 5c000000           ....[...\...    
Contents of section .group:
 0000 01000000 5d000000 5e000000           ....]...^...    
Contents of section .group:
 0000 01000000 5f000000                    ...._...        
Contents of section .group:
 0000 01000000 60000000 61000000           ....`...a...    
Contents of section .group:
 0000 01000000 62000000 63000000           ....b...c...    
Contents of section .group:
 0000 01000000 64000000 65000000           ....d...e...    
Contents of section .group:
 0000 01000000 66000000                    ....f...        
Contents of section .group:
 0000 01000000 67000000                    ....g...        
Contents of section .group:
 0000 01000000 68000000 69000000           ....h...i...    
Contents of section .group:
 0000 01000000 6a000000                    ....j...        
Contents of section .group:
 0000 01000000 6b000000 6c000000           ....k...l...    
Contents of section .group:
 0000 01000000 6d000000 6e000000           ....m...n...    
Contents of section .group:
 0000 01000000 6f000000 70000000           ....o...p...    
Contents of section .group:
 0000 01000000 71000000 72000000           ....q...r...    
Contents of section .group:
 0000 01000000 73000000 74000000           ....s...t...    
Contents of section .group:
 0000 01000000 75000000                    ....u...        
Contents of section .group:
 0000 01000000 76000000                    ....v...        
Contents of section .group:
 0000 01000000 77000000                    ....w...        
Contents of section .group:
 0000 01000000 78000000                    ....x...        
Contents of section .group:
 0000 01000000 79000000                    ....y...        
Contents of section .group:
 0000 01000000 7a000000                    ....z...        
Contents of section .group:
 0000 01000000 7b000000                    ....{...        
Contents of section .group:
 0000 01000000 7c000000                    ....|...        
Contents of section .group:
 0000 01000000 7d000000                    ....}...        
Contents of section .group:
 0000 01000000 7e000000                    ....~...        
Contents of section .group:
 0000 01000000 7f000000                    ........        
Contents of section .group:
 0000 01000000 80000000                    ........        
Contents of section .group:
 0000 01000000 81000000 82000000           ............    
Contents of section .group:
 0000 01000000 83000000                    ........        
Contents of section .group:
 0000 01000000 84000000                    ........        
Contents of section .group:
 0000 01000000 85000000 86000000           ............    
Contents of section .group:
 0000 01000000 87000000                    ........        
Contents of section .group:
 0000 01000000 88000000 89000000           ............    
Contents of section .group:
 0000 01000000 8a000000                    ........        
Contents of section .group:
 0000 01000000 8b000000 8c000000           ............    
Contents of section .group:
 0000 01000000 8d000000 8e000000           ............    
Contents of section .group:
 0000 01000000 8f000000 90000000           ............    
Contents of section .group:
 0000 01000000 91000000 92000000           ............    
Contents of section .group:
 0000 01000000 93000000 94000000           ............    
Contents of section .group:
 0000 01000000 95000000 96000000           ............    
Contents of section .group:
 0000 01000000 97000000 98000000           ............    
Contents of section .group:
 0000 01000000 99000000 9a000000           ............    
Contents of section .group:
 0000 01000000 9b000000 9c000000           ............    
Contents of section .group:
 0000 01000000 9d000000                    ........        
Contents of section .group:
 0000 01000000 9e000000                    ........        
Contents of section .group:
 0000 01000000 9f000000 a0000000           ............    
Contents of section .group:
 0000 01000000 a1000000                    ........        
Contents of section .group:
 0000 01000000 a2000000                    ........        
Contents of section .group:
 0000 01000000 a3000000                    ........        
Contents of section .group:
 0000 01000000 a6000000 a7000000           ............    
Contents of section .text:
 0000 fd7baba9 fd030091 f35301a9 f55b02a9  .{.......S...[..
 0010 f71b00f9 e013803d 00000090 000040f9  .......=......@.
 0020 010040f9 e1a700f9 010080d2 e013c03d  ..@............=
 0030 e037803d 00000090 13000091 00000090  .7.=............
 0040 00000091 e04300f9 e04340f9 e1830491  .....C...C@.....
 0050 02004039 e003032a 00000094 02000014  ..@9...*........
 0060 00000094 f34700f9 f7430139 e037c03d  .....G...C.9.7.=
 0070 e03b803d 20008052 e0d70139 e04740f9  .;.= ..R...9.G@.
 0080 e04b00f9 f6630139 e0c30191 e04f00f9  .K...c.9.....O..
 0090 e03bc03d e03f803d 20008052 e0db0139  .;.=.?.= ..R...9
 00a0 20008052 e0df0139 e04b40f9 e05300f9   ..R...9.K@..S..
 00b0 f5830139 e04f40f9 e05700f9 e03fc03d  ...9.O@..W...?.=
 00c0 e043803d 20008052 e0e30139 20008052  .C.= ..R...9 ..R
 00d0 e0e70139 ffeb0139 ffef0139 f4a30139  ...9...9...9...9
 00e0 e05740f9 e05b00f9 e05b40f9 e05f00f9  .W@..[...[@.._..
 00f0 e0030491 e06300f9 80008052 0048a272  .....c.....R.H.r
 0100 e07f00b9 e06340f9 e06700f9 e06740f9  .....c@..g...g@.
 0110 0000c03d e04f803d e04fc03d 00f8a04e  ...=.O.=.O.=...N
 0120 e04b803d e0430491 e1830491 00000094  .K.=.C..........
 0130 1f2003d5 e047c03d 1f2003d5 1f2003d5  . ...G.=. ... ..
 0140 1f2003d5 1f2003d5 1f2003d5 00000090  . ... ... ......
 0150 000040f9 e2a740f9 010040f9 420001eb  ..@...@...@.B...
 0160 010080d2 40000054 00000094 f35341a9  ....@..T.....SA.
 0170 f55b42a9 f71b40f9 fd7bd5a8 c0035fd6  .[B...@..{...._.
 0180 fd7baca9 fd030091 f35301a9 f55b02a9  .{.......S...[..
 0190 f71b00f9 e013803d 00000090 000040f9  .......=......@.
 01a0 010040f9 e19f00f9 010080d2 e013c03d  ..@............=
 01b0 e03b803d 00000090 13000091 00000090  .;.=............
 01c0 00000091 e04b00f9 e04b40f9 e1a30491  .....K...K@.....
 01d0 02004039 e003032a 00000094 02000014  ..@9...*........
 01e0 00000094 f34f00f9 f7430139 e03bc03d  .....O...C.9.;.=
 01f0 e03f803d 20008052 e0f70139 e04f40f9  .?.= ..R...9.O@.
 0200 e05300f9 f6630139 e0e30191 e05700f9  .S...c.9.....W..
 0210 e03fc03d e043803d 20008052 e0fb0139  .?.=.C.= ..R...9
 0220 20008052 e0ff0139 e05340f9 e05b00f9   ..R...9.S@..[..
 0230 f5830139 e05740f9 e05f00f9 e043c03d  ...9.W@.._...C.=
 0240 e047803d 20008052 e0030239 20008052  .G.= ..R...9 ..R
 0250 e0070239 ff0b0239 ff0f0239 f4a30139  ...9...9...9...9
 0260 e05f40f9 e06300f9 e06340f9 e06700f9  ._@..c...c@..g..
 0270 e0430491 e06b00f9 40008052 0050a272  .C...k..@..R.P.r
 0280 e08700b9 e06b40f9 e06f00f9 00000090  .....k@..o......
 0290 00000091 e09700f9 e06f40f9 e09b00f9  .........o@.....
 02a0 e0a30491 e04700f9 e1c30191 e0230291  .....G.......#..
 02b0 00000094 1f2003d5 1f2003d5 1f2003d5  ..... ... ... ..
 02c0 1f2003d5 1f2003d5 1f2003d5 1f2003d5  . ... ... ... ..
 02d0 1f2003d5 00000090 000040f9 e29f40f9  . ........@...@.
 02e0 010040f9 420001eb 010080d2 40000054  ..@.B.......@..T
 02f0 00000094 f35341a9 f55b42a9 f71b40f9  .....SA..[B...@.
 0300 fd7bd4a8 c0035fd6 fd7baca9 fd030091  .{...._..{......
 0310 f35301a9 f55b02a9 f71b00f9 e013803d  .S...[.........=
 0320 00000090 000040f9 010040f9 e19f00f9  ......@...@.....
 0330 010080d2 e013c03d e03b803d 00000090  .......=.;.=....
 0340 13000091 00000090 00000091 e04b00f9  .............K..
 0350 e04b40f9 e1a30491 02004039 e003032a  .K@.......@9...*
 0360 00000094 02000014 00000094 f34f00f9  .............O..
 0370 f7430139 e03bc03d e03f803d 20008052  .C.9.;.=.?.= ..R
 0380 e0f70139 e04f40f9 e05300f9 f6630139  ...9.O@..S...c.9
 0390 e0e30191 e05700f9 e03fc03d e043803d  .....W...?.=.C.=
 03a0 20008052 e0fb0139 20008052 e0ff0139   ..R...9 ..R...9
 03b0 e05340f9 e05b00f9 f5830139 e05740f9  .S@..[.....9.W@.
 03c0 e05f00f9 e043c03d e047803d 20008052  ._...C.=.G.= ..R
 03d0 e0030239 20008052 e0070239 ff0b0239  ...9 ..R...9...9
 03e0 ff0f0239 f4a30139 e05f40f9 e06300f9  ...9...9._@..c..
 03f0 e06340f9 e06700f9 e0430491 e06b00f9  .c@..g...C...k..
 0400 40008052 0030a272 e08700b9 e06b40f9  @..R.0.r.....k@.
 0410 e06f00f9 00000090 00000091 e09700f9  .o..............
 0420 e06f40f9 e09b00f9 e0a30491 e04700f9  .o@..........G..
 0430 e1c30191 e0230291 00000094 1f2003d5  .....#....... ..
 0440 1f2003d5 1f2003d5 1f2003d5 1f2003d5  . ... ... ... ..
 0450 1f2003d5 1f2003d5 1f2003d5 00000090  . ... ... ......
 0460 000040f9 e29f40f9 010040f9 420001eb  ..@...@...@.B...
 0470 010080d2 40000054 00000094 f35341a9  ....@..T.....SA.
 0480 f55b42a9 f71b40f9 fd7bd4a8 c0035fd6  .[B...@..{...._.
 0490 fd7baba9 fd030091 f35301a9 f55b02a9  .{.......S...[..
 04a0 f71b00f9 e013803d 00000090 000040f9  .......=......@.
 04b0 010040f9 e1a700f9 010080d2 e013c03d  ..@............=
 04c0 e037803d 00000090 13000091 00000090  .7.=............
 04d0 00000091 e04300f9 e04340f9 e1830491  .....C...C@.....
 04e0 02004039 e003032a 00000094 02000014  ..@9...*........
 04f0 00000094 f34700f9 f7430139 e037c03d  .....G...C.9.7.=
 0500 e03b803d 20008052 e0d70139 e04740f9  .;.= ..R...9.G@.
 0510 e04b00f9 f6630139 e0c30191 e04f00f9  .K...c.9.....O..
 0520 e03bc03d e03f803d 20008052 e0db0139  .;.=.?.= ..R...9
 0530 20008052 e0df0139 e04b40f9 e05300f9   ..R...9.K@..S..
 0540 f5830139 e04f40f9 e05700f9 e03fc03d  ...9.O@..W...?.=
 0550 e043803d 20008052 e0e30139 20008052  .C.= ..R...9 ..R
 0560 e0e70139 ffeb0139 ffef0139 f4a30139  ...9...9...9...9
 0570 e05740f9 e05b00f9 e05b40f9 e05f00f9  .W@..[...[@.._..
 0580 e0030491 e06300f9 80008052 0028a272  .....c.....R.(.r
 0590 e07f00b9 e06340f9 e06700f9 e06740f9  .....c@..g...g@.
 05a0 0000c03d e04f803d e04fc03d 00b8a04e  ...=.O.=.O.=...N
 05b0 1f2003d5 e04b803d e0430491 e1830491  . ...K.=.C......
 05c0 00000094 1f2003d5 e047c03d 1f2003d5  ..... ...G.=. ..
 05d0 1f2003d5 1f2003d5 1f2003d5 1f2003d5  . ... ... ... ..
 05e0 00000090 000040f9 e2a740f9 010040f9  ......@...@...@.
 05f0 420001eb 010080d2 40000054 00000094  B.......@..T....
 0600 f35341a9 f55b42a9 f71b40f9 fd7bd5a8  .SA..[B...@..{..
 0610 c0035fd6 fd7baba9 fd030091 f35301a9  .._..{.......S..
 0620 f55b02a9 f71b00f9 e013803d 00000090  .[.........=....
 0630 000040f9 010040f9 e1a700f9 010080d2  ..@...@.........
 0640 e013c03d e037803d 00000090 13000091  ...=.7.=........
 0650 00000090 00000091 e04300f9 e04340f9  .........C...C@.
 0660 e1830491 02004039 e003032a 00000094  ......@9...*....
 0670 02000014 00000094 f34700f9 f7430139  .........G...C.9
 0680 e037c03d e03b803d 20008052 e0d70139  .7.=.;.= ..R...9
 0690 e04740f9 e04b00f9 f6630139 e0c30191  .G@..K...c.9....
 06a0 e04f00f9 e03bc03d e03f803d 20008052  .O...;.=.?.= ..R
 06b0 e0db0139 20008052 e0df0139 e04b40f9  ...9 ..R...9.K@.
 06c0 e05300f9 f5830139 e04f40f9 e05700f9  .S.....9.O@..W..
 06d0 e03fc03d e043803d 20008052 e0e30139  .?.=.C.= ..R...9
 06e0 20008052 e0e70139 ffeb0139 ffef0139   ..R...9...9...9
 06f0 f4a30139 e05740f9 e05b00f9 e05b40f9  ...9.W@..[...[@.
 0700 e05f00f9 e0030491 e06300f9 00018052  ._.......c.....R
 0710 0024a272 e07f00b9 e06340f9 e06700f9  .$.r.....c@..g..
 0720 e06740f9 0000c03d e04f803d e04fc03d  .g@....=.O.=.O.=
 0730 00b8604e 1f2003d5 e04b803d e0430491  ..`N. ...K.=.C..
 0740 e1830491 00000094 1f2003d5 e047c03d  ......... ...G.=
 0750 1f2003d5 1f2003d5 1f2003d5 1f2003d5  . ... ... ... ..
 0760 1f2003d5 00000090 000040f9 e2a740f9  . ........@...@.
 0770 010040f9 420001eb 010080d2 40000054  ..@.B.......@..T
 0780 00000094 f35341a9 f55b42a9 f71b40f9  .....SA..[B...@.
 0790 fd7bd5a8 c0035fd6 fd7baba9 fd030091  .{...._..{......
 07a0 f35301a9 f55b02a9 f71b00f9 e013803d  .S...[.........=
 07b0 00000090 000040f9 010040f9 e1a700f9  ......@...@.....
 07c0 010080d2 e013c03d e037803d 00000090  .......=.7.=....
 07d0 13000091 00000090 00000091 e04300f9  .............C..
 07e0 e04340f9 e1830491 02004039 e003032a  .C@.......@9...*
 07f0 00000094 02000014 00000094 f34700f9  .............G..
 0800 f7430139 e037c03d e03b803d 20008052  .C.9.7.=.;.= ..R
 0810 e0d70139 e04740f9 e04b00f9 f6630139  ...9.G@..K...c.9
 0820 e0c30191 e04f00f9 e03bc03d e03f803d  .....O...;.=.?.=
 0830 20008052 e0db0139 20008052 e0df0139   ..R...9 ..R...9
 0840 e04b40f9 e05300f9 f5830139 e04f40f9  .K@..S.....9.O@.
 0850 e05700f9 e03fc03d e043803d 20008052  .W...?.=.C.= ..R
 0860 e0e30139 20008052 e0e70139 ffeb0139  ...9 ..R...9...9
 0870 ffef0139 f4a30139 e05740f9 e05b00f9  ...9...9.W@..[..
 0880 e05b40f9 e05f00f9 e0030491 e06300f9  .[@.._.......c..
 0890 00028052 0022a272 e07f00b9 e06340f9  ...R.".r.....c@.
 08a0 e06700f9 e06740f9 0000c03d e04f803d  .g...g@....=.O.=
 08b0 e04fc03d 00b8204e 1f2003d5 e04b803d  .O.=.. N. ...K.=
 08c0 e0430491 e1830491 00000094 1f2003d5  .C........... ..
 08d0 e047c03d 1f2003d5 1f2003d5 1f2003d5  .G.=. ... ... ..
 08e0 1f2003d5 1f2003d5 00000090 000040f9  . ... ........@.
 08f0 e2a740f9 010040f9 420001eb 010080d2  ..@...@.B.......
 0900 40000054 00000094 f35341a9 f55b42a9  @..T.....SA..[B.
 0910 f71b40f9 fd7bd5a8 c0035fd6 fd7baea9  ..@..{...._..{..
 0920 fd030091 f35301a9 f55b02a9 f71b00f9  .....S...[......
 0930 e013803d 00000090 000040f9 010040f9  ...=......@...@.
 0940 e18f00f9 010080d2 e013c03d e037803d  ...........=.7.=
 0950 00000090 13000091 00000090 00000091  ................
 0960 e04700f9 e04740f9 e1030491 02004039  .G...G@.......@9
 0970 e003032a 00000094 02000014 00000094  ...*............
 0980 f34b00f9 f7630139 e037c03d e03b803d  .K...c.9.7.=.;.=
 0990 20008052 e0f70139 e04b40f9 e04f00f9   ..R...9.K@..O..
 09a0 f6830139 e0e30191 e05300f9 e03bc03d  ...9.....S...;.=
 09b0 e03f803d 20008052 e0fb0139 20008052  .?.= ..R...9 ..R
 09c0 e0ff0139 e04f40f9 e05700f9 f5a30139  ...9.O@..W.....9
 09d0 e05340f9 e05b00f9 e03fc03d e043803d  .S@..[...?.=.C.=
 09e0 20008052 e0030239 20008052 e0070239   ..R...9 ..R...9
 09f0 ff0b0239 ff0f0239 f4c30139 e05b40f9  ...9...9...9.[@.
 0a00 e05f00f9 e05f40f9 e06300f9 e0030491  ._..._@..c......
 0a10 e06700f9 40008052 0030a472 e08700b9  .g..@..R.0.r....
 0a20 e06740f9 0000c03d 1f2003d5 1f2003d5  .g@....=. ... ..
 0a30 1f2003d5 1f2003d5 1f2003d5 00000090  . ... ... ......
 0a40 000040f9 e28f40f9 010040f9 420001eb  ..@...@...@.B...
 0a50 010080d2 40000054 00000094 f35341a9  ....@..T.....SA.
 0a60 f55b42a9 f71b40f9 fd7bd2a8 c0035fd6  .[B...@..{...._.
 0a70 fd7baea9 fd030091 f35301a9 f55b02a9  .{.......S...[..
 0a80 f71b00f9 e013803d 00000090 000040f9  .......=......@.
 0a90 010040f9 e18f00f9 010080d2 e013c03d  ..@............=
 0aa0 e037803d 00000090 13000091 00000090  .7.=............
 0ab0 00000091 e04700f9 e04740f9 e1030491  .....G...G@.....
 0ac0 02004039 e003032a 00000094 02000014  ..@9...*........
 0ad0 00000094 f34b00f9 f7630139 e037c03d  .....K...c.9.7.=
 0ae0 e03b803d 20008052 e0f70139 e04b40f9  .;.= ..R...9.K@.
 0af0 e04f00f9 f6830139 e0e30191 e05300f9  .O.....9.....S..
 0b00 e03bc03d e03f803d 20008052 e0fb0139  .;.=.?.= ..R...9
 0b10 20008052 e0ff0139 e04f40f9 e05700f9   ..R...9.O@..W..
 0b20 f5a30139 e05340f9 e05b00f9 e03fc03d  ...9.S@..[...?.=
 0b30 e043803d 20008052 e0030239 20008052  .C.= ..R...9 ..R
 0b40 e0070239 ff0b0239 ff0f0239 f4c30139  ...9...9...9...9
 0b50 e05b40f9 e05f00f9 e05f40f9 e06300f9  .[@.._..._@..c..
 0b60 e0030491 e06700f9 80008052 0028a472  .....g.....R.(.r
 0b70 e08700b9 e06740f9 0000c03d 1f2003d5  .....g@....=. ..
 0b80 1f2003d5 1f2003d5 1f2003d5 1f2003d5  . ... ... ... ..
 0b90 00000090 000040f9 e28f40f9 010040f9  ......@...@...@.
 0ba0 420001eb 010080d2 40000054 00000094  B.......@..T....
 0bb0 f35341a9 f55b42a9 f71b40f9 fd7bd2a8  .SA..[B...@..{..
 0bc0 c0035fd6 fd7baea9 fd030091 f35301a9  .._..{.......S..
 0bd0 f55b02a9 f71b00f9 e013803d 00000090  .[.........=....
 0be0 000040f9 010040f9 e18f00f9 010080d2  ..@...@.........
 0bf0 e013c03d e037803d 00000090 13000091  ...=.7.=........
 0c00 00000090 00000091 e04700f9 e04740f9  .........G...G@.
 0c10 e1030491 02004039 e003032a 00000094  ......@9...*....
 0c20 02000014 00000094 f34b00f9 f7630139  .........K...c.9
 0c30 e037c03d e03b803d 20008052 e0f70139  .7.=.;.= ..R...9
 0c40 e04b40f9 e04f00f9 f6830139 e0e30191  .K@..O.....9....
 0c50 e05300f9 e03bc03d e03f803d 20008052  .S...;.=.?.= ..R
 0c60 e0fb0139 20008052 e0ff0139 e04f40f9  ...9 ..R...9.O@.
 0c70 e05700f9 f5a30139 e05340f9 e05b00f9  .W.....9.S@..[..
 0c80 e03fc03d e043803d 20008052 e0030239  .?.=.C.= ..R...9
 0c90 20008052 e0070239 ff0b0239 ff0f0239   ..R...9...9...9
 0ca0 f4c30139 e05b40f9 e05f00f9 e05f40f9  ...9.[@.._..._@.
 0cb0 e06300f9 e0030491 e06700f9 00018052  .c.......g.....R
 0cc0 0024a472 e08700b9 e06740f9 0000c03d  .$.r.....g@....=
 0cd0 1f2003d5 1f2003d5 1f2003d5 1f2003d5  . ... ... ... ..
 0ce0 1f2003d5 00000090 000040f9 e28f40f9  . ........@...@.
 0cf0 010040f9 420001eb 010080d2 40000054  ..@.B.......@..T
 0d00 00000094 f35341a9 f55b42a9 f71b40f9  .....SA..[B...@.
 0d10 fd7bd2a8 c0035fd6 fd7baea9 fd030091  .{...._..{......
 0d20 f35301a9 f55b02a9 f71b00f9 e013803d  .S...[.........=
 0d30 00000090 000040f9 010040f9 e18f00f9  ......@...@.....
 0d40 010080d2 e013c03d e037803d 00000090  .......=.7.=....
 0d50 13000091 00000090 00000091 e04700f9  .............G..
 0d60 e04740f9 e1030491 02004039 e003032a  .G@.......@9...*
 0d70 00000094 02000014 00000094 f34b00f9  .............K..
 0d80 f7630139 e037c03d e03b803d 20008052  .c.9.7.=.;.= ..R
 0d90 e0f70139 e04b40f9 e04f00f9 f6830139  ...9.K@..O.....9
 0da0 e0e30191 e05300f9 e03bc03d e03f803d  .....S...;.=.?.=
 0db0 20008052 e0fb0139 20008052 e0ff0139   ..R...9 ..R...9
 0dc0 e04f40f9 e05700f9 f5a30139 e05340f9  .O@..W.....9.S@.
 0dd0 e05b00f9 e03fc03d e043803d 20008052  .[...?.=.C.= ..R
 0de0 e0030239 20008052 e0070239 ff0b0239  ...9 ..R...9...9
 0df0 ff0f0239 f4c30139 e05b40f9 e05f00f9  ...9...9.[@.._..
 0e00 e05f40f9 e06300f9 e0030491 e06700f9  ._@..c.......g..
 0e10 00028052 0022a472 e08700b9 e06740f9  ...R.".r.....g@.
 0e20 0000c03d 1f2003d5 1f2003d5 1f2003d5  ...=. ... ... ..
 0e30 1f2003d5 1f2003d5 00000090 000040f9  . ... ........@.
 0e40 e28f40f9 010040f9 420001eb 010080d2  ..@...@.B.......
 0e50 40000054 00000094 f35341a9 f55b42a9  @..T.....SA..[B.
 0e60 f71b40f9 fd7bd2a8 c0035fd6 fd7baea9  ..@..{...._..{..
 0e70 fd030091 f35301a9 f55b02a9 f71b00f9  .....S...[......
 0e80 e013803d 00000090 000040f9 010040f9  ...=......@...@.
 0e90 e18f00f9 010080d2 e013c03d e037803d  ...........=.7.=
 0ea0 00000090 13000091 00000090 00000091  ................
 0eb0 e04700f9 e04740f9 e1030491 02004039  .G...G@.......@9
 0ec0 e003032a 00000094 02000014 00000094  ...*............
 0ed0 f34b00f9 f7630139 e037c03d e03b803d  .K...c.9.7.=.;.=
 0ee0 20008052 e0f70139 e04b40f9 e04f00f9   ..R...9.K@..O..
 0ef0 f6830139 e0e30191 e05300f9 e03bc03d  ...9.....S...;.=
 0f00 e03f803d 20008052 e0fb0139 20008052  .?.= ..R...9 ..R
 0f10 e0ff0139 e04f40f9 e05700f9 f5a30139  ...9.O@..W.....9
 0f20 e05340f9 e05b00f9 e03fc03d e043803d  .S@..[...?.=.C.=
 0f30 20008052 e0030239 20008052 e0070239   ..R...9 ..R...9
 0f40 ff0b0239 ff0f0239 f4c30139 e05b40f9  ...9...9...9.[@.
 0f50 e05f00f9 e05f40f9 e06300f9 e0030491  ._..._@..c......
 0f60 e06700f9 40008052 0030a472 e08700b9  .g..@..R.0.r....
 0f70 e06740f9 0000c03d 1f2003d5 1f2003d5  .g@....=. ... ..
 0f80 1f2003d5 1f2003d5 1f2003d5 00000090  . ... ... ......
 0f90 000040f9 e28f40f9 010040f9 420001eb  ..@...@...@.B...
 0fa0 010080d2 40000054 00000094 f35341a9  ....@..T.....SA.
 0fb0 f55b42a9 f71b40f9 fd7bd2a8 c0035fd6  .[B...@..{...._.
 0fc0 fd7baea9 fd030091 f35301a9 f55b02a9  .{.......S...[..
 0fd0 f71b00f9 e013803d 00000090 000040f9  .......=......@.
 0fe0 010040f9 e18f00f9 010080d2 e013c03d  ..@............=
 0ff0 e037803d 00000090 13000091 00000090  .7.=............
 1000 00000091 e04700f9 e04740f9 e1030491  .....G...G@.....
 1010 02004039 e003032a 00000094 02000014  ..@9...*........
 1020 00000094 f34b00f9 f7630139 e037c03d  .....K...c.9.7.=
 1030 e03b803d 20008052 e0f70139 e04b40f9  .;.= ..R...9.K@.
 1040 e04f00f9 f6830139 e0e30191 e05300f9  .O.....9.....S..
 1050 e03bc03d e03f803d 20008052 e0fb0139  .;.=.?.= ..R...9
 1060 20008052 e0ff0139 e04f40f9 e05700f9   ..R...9.O@..W..
 1070 f5a30139 e05340f9 e05b00f9 e03fc03d  ...9.S@..[...?.=
 1080 e043803d 20008052 e0030239 20008052  .C.= ..R...9 ..R
 1090 e0070239 ff0b0239 ff0f0239 f4c30139  ...9...9...9...9
 10a0 e05b40f9 e05f00f9 e05f40f9 e06300f9  .[@.._..._@..c..
 10b0 e0030491 e06700f9 80008052 0028a472  .....g.....R.(.r
 10c0 e08700b9 e06740f9 0000c03d 1f2003d5  .....g@....=. ..
 10d0 1f2003d5 1f2003d5 1f2003d5 1f2003d5  . ... ... ... ..
 10e0 00000090 000040f9 e28f40f9 010040f9  ......@...@...@.
 10f0 420001eb 010080d2 40000054 00000094  B.......@..T....
 1100 f35341a9 f55b42a9 f71b40f9 fd7bd2a8  .SA..[B...@..{..
 1110 c0035fd6 fd7baea9 fd030091 f35301a9  .._..{.......S..
 1120 f55b02a9 f71b00f9 e013803d 00000090  .[.........=....
 1130 000040f9 010040f9 e18f00f9 010080d2  ..@...@.........
 1140 e013c03d e037803d 00000090 13000091  ...=.7.=........
 1150 00000090 00000091 e04700f9 e04740f9  .........G...G@.
 1160 e1030491 02004039 e003032a 00000094  ......@9...*....
 1170 02000014 00000094 f34b00f9 f7630139  .........K...c.9
 1180 e037c03d e03b803d 20008052 e0f70139  .7.=.;.= ..R...9
 1190 e04b40f9 e04f00f9 f6830139 e0e30191  .K@..O.....9....
 11a0 e05300f9 e03bc03d e03f803d 20008052  .S...;.=.?.= ..R
 11b0 e0fb0139 20008052 e0ff0139 e04f40f9  ...9 ..R...9.O@.
 11c0 e05700f9 f5a30139 e05340f9 e05b00f9  .W.....9.S@..[..
 11d0 e03fc03d e043803d 20008052 e0030239  .?.=.C.= ..R...9
 11e0 20008052 e0070239 ff0b0239 ff0f0239   ..R...9...9...9
 11f0 f4c30139 e05b40f9 e05f00f9 e05f40f9  ...9.[@.._..._@.
 1200 e06300f9 e0030491 e06700f9 00018052  .c.......g.....R
 1210 0024a472 e08700b9 e06740f9 0000c03d  .$.r.....g@....=
 1220 1f2003d5 1f2003d5 1f2003d5 1f2003d5  . ... ... ... ..
 1230 1f2003d5 00000090 000040f9 e28f40f9  . ........@...@.
 1240 010040f9 420001eb 010080d2 40000054  ..@.B.......@..T
 1250 00000094 f35341a9 f55b42a9 f71b40f9  .....SA..[B...@.
 1260 fd7bd2a8 c0035fd6 fd7baea9 fd030091  .{...._..{......
 1270 f35301a9 f55b02a9 f71b00f9 e013803d  .S...[.........=
 1280 00000090 000040f9 010040f9 e18f00f9  ......@...@.....
 1290 010080d2 e013c03d e037803d 00000090  .......=.7.=....
 12a0 13000091 00000090 00000091 e04700f9  .............G..
 12b0 e04740f9 e1030491 02004039 e003032a  .G@.......@9...*
 12c0 00000094 02000014 00000094 f34b00f9  .............K..
 12d0 f7630139 e037c03d e03b803d 20008052  .c.9.7.=.;.= ..R
 12e0 e0f70139 e04b40f9 e04f00f9 f6830139  ...9.K@..O.....9
 12f0 e0e30191 e05300f9 e03bc03d e03f803d  .....S...;.=.?.=
 1300 20008052 e0fb0139 20008052 e0ff0139   ..R...9 ..R...9
 1310 e04f40f9 e05700f9 f5a30139 e05340f9  .O@..W.....9.S@.
 1320 e05b00f9 e03fc03d e043803d 20008052  .[...?.=.C.= ..R
 1330 e0030239 20008052 e0070239 ff0b0239  ...9 ..R...9...9
 1340 ff0f0239 f4c30139 e05b40f9 e05f00f9  ...9...9.[@.._..
 1350 e05f40f9 e06300f9 e0030491 e06700f9  ._@..c.......g..
 1360 00028052 0022a472 e08700b9 e06740f9  ...R.".r.....g@.
 1370 0000c03d 1f2003d5 1f2003d5 1f2003d5  ...=. ... ... ..
 1380 1f2003d5 1f2003d5 00000090 000040f9  . ... ........@.
 1390 e28f40f9 010040f9 420001eb 010080d2  ..@...@.B.......
 13a0 40000054 00000094 f35341a9 f55b42a9  @..T.....SA..[B.
 13b0 f71b40f9 fd7bd2a8 c0035fd6 fd7bbea9  ..@..{...._..{..
 13c0 fd030091 e01f00b9 e11b00b9 e01f40b9  ..............@.
 13d0 1f040071 e1010054 e11b40b9 e0ff9f52  ...q...T..@....R
 13e0 3f00006b 61010054 00000090 00000091  ?..ka..T........
 13f0 00000094 00000090 02000091 00000090  ................
 1400 01000091 00000090 000040f9 00000094  ..........@.....
 1410 1f2003d5 fd7bc2a8 c0035fd6 fd7bbfa9  . ...{...._..{..
 1420 fd030091 e1ff9f52 20008052 e4ffff97  .......R ..R....
 1430 fd7bc1a8 c0035fd6                    .{...._.        
Contents of section .rodata:
 0000 00000000 00000000 00000000 00000000  ................
 0010 00000000 00000000 00000000 00000000  ................
 0020 00000000 00000000 00000000 00000000  ................
 0030 00000000 00000000 00000000 00000000  ................
 0040 0000                                 ..              
Contents of section .rodata._ZN3eve11ignore_noneE:
 0000 00                                   .               
Contents of section .rodata._ZN3eve6detail10adl_helperE:
 0000 00                                   .               
Contents of section .rodata._ZN3eve13condition_keyE:
 0000 00                                   .               
Contents of section .rodata._ZN3eve7bit_andE:
 0000 00                                   .               
Contents of section .rodata._ZN3eve10bit_andnotE:
 0000 00                                   .               
Contents of section .rodata._ZN3eve7bit_notE:
 0000 00                                   .               
Contents of section .rodata._ZN3eve3absE:
 0000 00                                   .               
Contents of section .rodata._ZN3eve5mzeroE:
 0000 00                                   .               
Contents of section .text._ZN3eve2asIdEC1Ev:
 0000 ff4300d1 e00700f9 1f2003d5 ff430091  .C....... ...C..
 0010 c0035fd6                             .._.            
Contents of section .gcc_except_table:
 0000 ffff0104 58046000 ffff0104 58046000  ....X.`.....X.`.
 0010 ffff0104 58046000 ffff0104 58046000  ....X.`.....X.`.
 0020 ffff0104 58046000 ffff0104 58046000  ....X.`.....X.`.
 0030 ffff0104 58046000 ffff0104 58046000  ....X.`.....X.`.
 0040 ffff0104 58046000 ffff0104 58046000  ....X.`.....X.`.
 0050 ffff0104 58046000 ffff0104 58046000  ....X.`.....X.`.
 0060 ffff0104 58046000 ffff0104 58046000  ....X.`.....X.`.
 0070 ffff010c fc010484 0200fc04 04840500  ................
 0080 ffff010c f8010480 0200f804 04800500  ................
 0090 ffff010a 74047c00 e00104e8 0100ffff  ....t.|.........
 00a0 010cb803 04c00300 ac0504b4 0500      ..............  
Contents of section .text._ZZN4kumi9fold_leftIZNK3eve14decorated_withINS1_7optionsIN3rbr8settingsIJEEEEEJNS1_18conditional_optionENS1_16saturated_optionEEE7optionsEvEUlT_RKT0_E_NS_5tupleIJS8_S9_EEES7_EEDaSB_OSC_T1_ENKUlSt16integer_sequenceImJXspT_EEEE_clIJLm0ELm1EEEEDaSL_:
 0000 fd7bb7a9 fd030091 f30b00f9 e01700f9  .{..............
 0010 e1830039 00000090 000040f9 010040f9  ...9......@...@.
 0020 e14700f9 010080d2 e01740f9 000440f9  .G........@...@.
 0030 e03300f9 e03340f9 e03700f9 e3e30139  .3...3@..7.....9
 0040 e03740f9 e03b00f9 1f2003d5 1f2003d5  .7@..;... ... ..
 0050 e01740f9 000440f9 e02700f9 e02740f9  ..@...@..'...'@.
 0060 e02b00f9 e2e30139 e02b40f9 e02f00f9  .+.....9.+@../..
 0070 1f2003d5 1f2003d5 e01740f9 000840f9  . ... ....@...@.
 0080 e04300f9 e1e30191 e0e30091 00000094  .C..............
 0090 e1030191 e0c30091 00000094 00000090  ................
 00a0 000040f9 e24740f9 010040f9 420001eb  ..@..G@...@.B...
 00b0 010080d2 40000054 00000094 e003132a  ....@..T.......*
 00c0 f30b40f9 fd7bc9a8 c0035fd6           ..@..{...._.    
Contents of section .text._ZZNK3eve14decorated_withINS_7optionsIN3rbr8settingsIJEEEEEJNS_18conditional_optionENS_16saturated_optionEEE7optionsEvENKUlT_RKT0_E_clIS5_S7_EEDaS9_SC_:
 0000 ffc300d1 e00f00f9 e1430039 e20700f9  .........C.9....
 0010 e00740f9 e01700f9 1f2003d5 1f2003d5  ..@...... ... ..
 0020 e003032a ffc30091 c0035fd6           ...*......_.    
Contents of section .text._ZN4kumi1_rsIRN3eve7optionsIN3rbr8settingsIJEEEEEEEDcONS0_8foldableIZNKS2_14decorated_withIS7_JNS2_18conditional_optionENS2_16saturated_optionEEE7optionsEvEUlT_RKT0_E_SC_EEONS9_ISI_SE_EE:
 0000 fd7bbda9 fd030091 f30b00f9 e01700f9  .{..............
 0010 e11300f9 e31740f9 e01340f9 000440f9  ......@...@...@.
 0020 e11740f9 21040091 e20301aa 01004039  ..@.!.........@9
 0030 e00303aa 00000094 e003132a f30b40f9  ...........*..@.
 0040 fd7bc3a8 c0035fd6                    .{...._.        
Contents of section .text._ZZNK3eve14decorated_withINS_7optionsIN3rbr8settingsIJEEEEEJNS_18conditional_optionENS_16saturated_optionEEE7optionsEvENKUlT_RKT0_E_clIS5_S6_EEDaS9_SC_:
 0000 fd7bbaa9 fd030091 f35301a9 e01f00f9  .{.......S......
 0010 e1c30039 e21700f9 00000090 000040f9  ...9..........@.
 0020 010040f9 e12f00f9 010080d2 e01740f9  ..@../........@.
 0030 e02b00f9 f3c30091 00000090 01000091  .+..............
 0040 00000090 00000091 00000094 e0230191  .............#..
 0050 e1030191 00000094 1f2003d5 e0230191  ......... ...#..
 0060 e10300aa e00313aa 00000094 1f2003d5  ............. ..
 0070 1f2003d5 1f2003d5 00000090 000040f9  . ... ........@.
 0080 e22f40f9 010040f9 420001eb 010080d2  ./@...@.B.......
 0090 40000054 00000094 e003142a f35341a9  @..T.......*.SA.
 00a0 fd7bc6a8 c0035fd6                    .{...._.        
Contents of section .text._ZNK3rbr10as_keywordIN3eve6detail15condition_key_tEEaSIRKNS1_12ignore_none_EEEDaOT_:
 0000 ff4300d1 e00700f9 e10300f9 e003022a  .C.............*
 0010 ff430091 c0035fd6                    .C...._.        
Contents of section .text._ZZN3rbr5mergeIJEJNS_6optionIN3eve6detail15condition_key_tERKNS2_12ignore_none_EEEEEEDaRKNS_8settingsIJDpT_EEERKNS9_IJDpT0_EEEENKUlRKNS_6detail4keysIJSB_EEERKT0_RKT1_E0_clIJS4_ENS9_IJEEENS9_IJS8_EEEEEDaSO_SR_SU_:
 0000 fd7bbaa9 fd030091 f30b00f9 e01f00f9  .{..............
 0010 e11b00f9 e21700f9 e31300f9 00000090  ................
 0020 000040f9 010040f9 e12f00f9 010080d2  ..@...@../......
 0030 e01f40f9 000040f9 e1030191 e31340f9  ..@...@.......@.
 0040 e21740f9 00000094 e1230191 e0430191  ..@......#...C..
 0050 00000094 1f2003d5 00000090 000040f9  ..... ........@.
 0060 e22f40f9 010040f9 420001eb 010080d2  ./@...@.B.......
 0070 40000054 00000094 e003132a f30b40f9  @..T.......*..@.
 0080 fd7bc6a8 c0035fd6                    .{...._.        
Contents of section .text._ZZN3rbr5mergeIJEJNS_6optionIN3eve6detail15condition_key_tERKNS2_12ignore_none_EEEEEEDaRKNS_8settingsIJDpT_EEERKNS9_IJDpT0_EEEENKUlRKT_RKT0_RKT1_E_clIS4_NS9_IJEEENS9_IJS8_EEEEEDaSM_SP_SS_:
 0000 fd7bbaa9 fd030091 f30b00f9 e01f00f9  .{..............
 0010 e11b00f9 e21700f9 e31300f9 00000090  ................
 0020 000040f9 010040f9 e12f00f9 010080d2  ..@...@../......
 0030 e0230191 e10300aa e01340f9 00000094  .#........@.....
 0040 e1430191 e0230191 00000094 1f2003d5  .C...#....... ..
 0050 00000090 000040f9 e22f40f9 010040f9  ......@../@...@.
 0060 420001eb 010080d2 40000054 00000094  B.......@..T....
 0070 e003132a f30b40f9 fd7bc6a8 c0035fd6  ...*..@..{...._.
Contents of section .text._ZNK3rbr8settingsIJNS_6optionIN3eve6detail15condition_key_tERKNS2_12ignore_none_EEEEEixIS4_EEDaRKT_:
 0000 fd7bbda9 fd030091 f30b00f9 e01700f9  .{..............
 0010 e11300f9 e01740f9 e11340f9 00000094  ......@...@.....
 0020 1f2003d5 e003132a f30b40f9 fd7bc3a8  . .....*..@..{..
 0030 c0035fd6                             .._.            
Contents of section .text._ZNK3rbr10as_keywordIN3eve6detail15condition_key_tEEaSINS1_12ignore_none_EEEDaOT_:
 0000 ff4300d1 e00700f9 e10300f9 e003022a  .C.............*
 0010 ff430091 c0035fd6                    .C...._.        
Contents of section .text._ZN3rbr5mergeIJEJNS_6optionIN3eve6detail15condition_key_tERKNS2_12ignore_none_EEEEEEDaRKNS_8settingsIJDpT_EEERKNS9_IJDpT0_EEE:
 0000 fd7bbba9 fd030091 f30b00f9 e01700f9  .{..............
 0010 e11300f9 00000090 000040f9 010040f9  ..........@...@.
 0020 e12700f9 010080d2 e0c30091 e02300f9  .'...........#..
 0030 e1e30091 e0030191 e31340f9 e21740f9  ..........@...@.
 0040 00000094 1f2003d5 00000090 000040f9  ..... ........@.
 0050 e22740f9 010040f9 420001eb 010080d2  .'@...@.B.......
 0060 40000054 00000094 e003132a f30b40f9  @..T.......*..@.
 0070 fd7bc5a8 c0035fd6                    .{...._.        
Contents of section .text._ZN4kumi1_rsIN3eve7optionsIN3rbr8settingsIJEEEEEEEDcONS0_8foldableIZNKS2_14decorated_withIS7_JNS2_18conditional_optionENS2_16saturated_optionEEE7optionsEvEUlT_RKT0_E_SA_EEONS8_ISH_SD_EE:
 0000 fd7bbda9 fd030091 f30b00f9 e01700f9  .{..............
 0010 e11300f9 e31740f9 e01740f9 01040091  ......@...@.....
 0020 e01340f9 e20301aa 01044039 e00303aa  ..@.......@9....
 0030 00000094 e003132a f30b40f9 fd7bc3a8  .......*..@..{..
 0040 c0035fd6                             .._.            
Contents of section .text._ZN4kumi9fold_leftIZNK3eve14decorated_withINS1_7optionsIN3rbr8settingsIJEEEEEJNS1_18conditional_optionENS1_16saturated_optionEEE7optionsEvEUlT_RKT0_E_NS_5tupleIJS8_S9_EEES7_EEDaSB_OSC_T1_:
 0000 fd7bbaa9 fd030091 f30b00f9 e0e30039  .{.............9
 0010 e11b00f9 e2a30039 00000090 000040f9  .......9......@.
 0020 010040f9 e12f00f9 010080d2 e0e30091  ..@../..........
 0030 e02300f9 e01b40f9 e02700f9 e0a30091  .#....@..'......
 0040 e02b00f9 e0030191 e103032a 00000094  .+.........*....
 0050 1f2003d5 00000090 000040f9 e22f40f9  . ........@../@.
 0060 010040f9 420001eb 010080d2 40000054  ..@.B.......@..T
 0070 00000094 e003132a f30b40f9 fd7bc6a8  .......*..@..{..
 0080 c0035fd6                             .._.            
Contents of section .text._ZNK3rbr6optionIN3eve6detail15condition_key_tERKNS1_12ignore_none_EEclERKS3_:
 0000 ff4300d1 e00700f9 e10300f9 1f2003d5  .C........... ..
 0010 e003022a ff430091 c0035fd6           ...*.C...._.    
Contents of section .text._ZN3rbr10aggregatorIJNS_6optionIN3eve6detail15condition_key_tENS2_12ignore_none_EEEEEC2ERKS6_:
 0000 ff4300d1 e00700f9 e10300f9 1f2003d5  .C........... ..
 0010 ff430091 c0035fd6                    .C...._.        
Contents of section .text._ZN3rbr8settingsIJNS_6optionIN3eve6detail15condition_key_tENS2_12ignore_none_EEEEEC2ERKS6_:
 0000 fd7bbea9 fd030091 e00f00f9 e10b00f9  .{..............
 0010 e00f40f9 e10b40f9 00000094 1f2003d5  ..@...@...... ..
 0020 fd7bc2a8 c0035fd6                    .{...._.        
Contents of section .text._ZN3rbr10aggregatorIJNS_6optionIN3eve6detail15condition_key_tERKNS2_12ignore_none_EEEEEC2ERKS8_:
 0000 ff4300d1 e00700f9 e10300f9 1f2003d5  .C........... ..
 0010 ff430091 c0035fd6                    .C...._.        
Contents of section .text._ZN3rbr8settingsIJNS_6optionIN3eve6detail15condition_key_tERKNS2_12ignore_none_EEEEEC2ERKS8_:
 0000 fd7bbea9 fd030091 e00f00f9 e10b00f9  .{..............
 0010 e00f40f9 e10b40f9 00000094 1f2003d5  ..@...@...... ..
 0020 fd7bc2a8 c0035fd6                    .{...._.        
Contents of section .text._ZZN3eve6detail5applyILm2EZNS0_3mapIRKNS_5abs_tINS_7optionsIN3rbr8settingsIJEEEEEEEJRKNS_10arm_abi_v04wideIdNS_5fixedILl2EEEEEEEENS0_11wide_resultIT_JDpT0_EE4typeEOSK_DpOSL_EUlDpT_E_EEDcOT0_ENKUlRKSt16integer_sequenceImJXspT_EEEE_clIJLm0ELm1EEEEDaS10_:
 0000 fd7bbea9 fd030091 e00f00f9 e10b00f9  .{..............
 0010 e00f40f9 000040f9 e103032a 00000094  ..@...@....*....
 0020 fd7bc2a8 c0035fd6                    .{...._.        
Contents of section .text._ZZN3eve6detail3mapIRKNS_5abs_tINS_7optionsIN3rbr8settingsIJEEEEEEEJRKNS_10arm_abi_v04wideIdNS_5fixedILl2EEEEEEEENS0_11wide_resultIT_JDpT0_EE4typeEOSJ_DpOSK_ENKUlDpT_E_clIJSt17integral_constantImLm0EESV_ImLm1EEEEEDaSS_:
 0000 ff8309d1 fd7b00a9 fd030091 f35301a9  .....{.......S..
 0010 f55b02a9 f76303a9 f96b04a9 fb7305a9  .[...c...k...s..
 0020 e83300fd e04700f9 e1030239 e2e30139  .3...G.....9...9
 0030 00000090 000040f9 010040f9 e12f01f9  ......@...@../..
 0040 010080d2 e04740f9 010040f9 e04740f9  .....G@...@..G@.
 0050 000440f9 e1c300f9 e3430239 e0c700f9  ..@......C.9....
 0060 e0430291 00000094 e10300aa e0c740f9  .C............@.
 0070 e0cb00f9 e1cf00f9 e0cb40f9 e0d300f9  ..........@.....
 0080 e0cf40f9 e0d700f9 e0d340f9 e0db00f9  ..@.......@.....
 0090 e0d740f9 e0df00f9 e0db40f9 e0e300f9  ..@.......@.....
 00a0 e0e340f9 0000c03d e08f803d e0030891  ..@....=...=....
 00b0 000443a9 e2030891 408404a9 e0df40f9  ..C.....@.....@.
 00c0 00f07dd3 e1230991 206860fc 1f2003d5  ..}..#.. h`.. ..
 00d0 1f2003d5 e0c340f9 e0e700f9 e0eb00fd  . ....@.........
 00e0 f3e740f9 e0e740f9 e0ef00f9 e0ef40f9  ..@...@.......@.
 00f0 e1c30891 02004039 e0db4139 00000094  ......@9..A9....
 0100 02000014 00000094 f3f300f9 fc630239  .............c.9
 0110 e0eb40fd e0f700fd 20008052 e0e70239  ..@..... ..R...9
 0120 e0f340f9 e0fb00f9 fb830239 e0830891  ..@........9....
 0130 e0ff00f9 e0f740fd e00301fd 20008052  ......@..... ..R
 0140 e0eb0239 20008052 e0ef0239 e0fb40f9  ...9 ..R...9..@.
 0150 e00701f9 faa30239 e0ff40f9 e00b01f9  .......9..@.....
 0160 e00341fd e01b01fd 20008052 e0f30239  ..A..... ..R...9
 0170 20008052 e0f70239 fffb0239 ffff0239   ..R...9...9...9
 0180 f9c30239 e00b41f9 e00f01f9 e1c30891  ...9..A.........
 0190 e0c30291 e30301aa e20f41f9 e10300aa  ..........A.....
 01a0 00000090 00000091 00000094 0840601e  .............@`.
 01b0 1f2003d5 1f2003d5 1f2003d5 1f2003d5  . ... ... ... ..
 01c0 1f2003d5 e04740f9 010040f9 e04740f9  . ...G@...@..G@.
 01d0 000440f9 e17300f9 f8430239 e07700f9  ..@..s...C.9.w..
 01e0 e0430291 00000094 e10300aa e07740f9  .C...........w@.
 01f0 e07b00f9 e17f00f9 e07b40f9 e08300f9  .{.......{@.....
 0200 e07f40f9 e08700f9 e08340f9 e08b00f9  ..@.......@.....
 0210 e08740f9 e08f00f9 e08b40f9 e09300f9  ..@.......@.....
 0220 e09340f9 0000c03d e08f803d e0030891  ..@....=...=....
 0230 000443a9 e2030891 408404a9 e08f40f9  ..C.....@.....@.
 0240 00f07dd3 e1230991 206860fc 1f2003d5  ..}..#.. h`.. ..
 0250 1f2003d5 e07340f9 e09700f9 e09b00fd  . ...s@.........
 0260 f39740f9 e09740f9 e09f00f9 e09f40f9  ..@...@.......@.
 0270 e1c30891 02004039 e0df4139 00000094  ......@9..A9....
 0280 02000014 00000094 f3a300f9 f7630239  .............c.9
 0290 e09b40fd e0a700fd 20008052 e0cb0239  ..@..... ..R...9
 02a0 e0a340f9 e0ab00f9 f6830239 e0830891  ..@........9....
 02b0 e0af00f9 e0a740fd e0b300fd 20008052  ......@..... ..R
 02c0 e0cf0239 20008052 e0d30239 e0ab40f9  ...9 ..R...9..@.
 02d0 e0b700f9 f5a30239 e0af40f9 e0bb00f9  .......9..@.....
 02e0 e0b340fd e01b01fd 20008052 e0d70239  ..@..... ..R...9
 02f0 20008052 e0db0239 ffdf0239 ffe30239   ..R...9...9...9
 0300 f4c30239 e0bb40f9 e0bf00f9 e1c30891  ...9..@.........
 0310 e0c30291 e30301aa e2bf40f9 e10300aa  ..........@.....
 0320 00000090 00000091 00000094 1f2003d5  ............. ..
 0330 1f2003d5 1f2003d5 1f2003d5 1f2003d5  . ... ... ... ..
 0340 e86300fd e06700fd f3830891 e0c30291  .c...g..........
 0350 00000094 e06340fd e06b00fd e06740fd  .....c@..k...g@.
 0360 e06f00fd e0c30891 e16f40fd e06b40fd  .o.......o@..k@.
 0370 00000094 1f2003d5 e08f803d e0c30891  ..... .....=....
 0380 e10300aa e00313aa 00000094 1f2003d5  ............. ..
 0390 e08bc03d 00000090 000040f9 e22f41f9  ...=......@../A.
 03a0 010040f9 420001eb 010080d2 40000054  ..@.B.......@..T
 03b0 00000094 e83340fd f35341a9 f55b42a9  .....3@..SA..[B.
 03c0 f76343a9 f96b44a9 fb7345a9 fd7b40a9  .cC..kD..sE..{@.
 03d0 ff830991 c0035fd6                    ......_.        
Contents of section .text._ZZN3eve6detail5applyILm2EZNS0_3mapIRKNS_5abs_tINS_7optionsIN3rbr8settingsIJEEEEEEEJRKNS_10arm_abi_v04wideIlNS_5fixedILl2EEEEEEEENS0_11wide_resultIT_JDpT0_EE4typeEOSK_DpOSL_EUlDpT_E_EEDcOT0_ENKUlRKSt16integer_sequenceImJXspT_EEEE_clIJLm0ELm1EEEEDaS10_:
 0000 fd7bbea9 fd030091 e00f00f9 e10b00f9  .{..............
 0010 e00f40f9 000040f9 e103032a 00000094  ..@...@....*....
 0020 fd7bc2a8 c0035fd6                    .{...._.        
Contents of section .text._ZZN3eve6detail3mapIRKNS_5abs_tINS_7optionsIN3rbr8settingsIJEEEEEEEJRKNS_10arm_abi_v04wideIlNS_5fixedILl2EEEEEEEENS0_11wide_resultIT_JDpT0_EE4typeEOSJ_DpOSK_ENKUlDpT_E_clIJSt17integral_constantImLm0EESV_ImLm1EEEEEDaSS_:
 0000 ff4309d1 fd7b00a9 fd030091 f35301a9  .C...{.......S..
 0010 f55b02a9 f76303a9 f96b04a9 fb7305a9  .[...c...k...s..
 0020 e03f00f9 e1c30139 e2a30139 00000090  .?.....9...9....
 0030 000040f9 010040f9 e12701f9 010080d2  ..@...@..'......
 0040 e03f40f9 010040f9 e03f40f9 000440f9  .?@...@..?@...@.
 0050 e1bb00f9 e3030239 e0bf00f9 e0030291  .......9........
 0060 00000094 e10300aa e0bf40f9 e0c300f9  ..........@.....
 0070 e1c700f9 e0c340f9 e0cb00f9 e0c740f9  ......@.......@.
 0080 e0cf00f9 e0cb40f9 e0d300f9 e0cf40f9  ......@.......@.
 0090 e0d700f9 e0d340f9 e0db00f9 e0db40f9  ......@.......@.
 00a0 0000c03d e08b803d e0030891 000442a9  ...=...=......B.
 00b0 e2030891 408403a9 e0d740f9 00f07dd3  ....@.....@...}.
 00c0 e1e30891 206860f8 1f2003d5 1f2003d5  .... h`.. ... ..
 00d0 e1bb40f9 e1df00f9 e0e300f9 f3df40f9  ..@...........@.
 00e0 e0df40f9 e0e700f9 e0e740f9 e1830891  ..@.......@.....
 00f0 02004039 e09b4139 00000094 02000014  ..@9..A9........
 0100 00000094 f3eb00f9 fc230239 e0e340f9  .........#.9..@.
 0110 e0ef00f9 20008052 e0a70239 e0eb40f9  .... ..R...9..@.
 0120 e0f300f9 fb430239 e0430891 e0f700f9  .....C.9.C......
 0130 e0ef40f9 e0fb00f9 20008052 e0ab0239  ..@..... ..R...9
 0140 20008052 e0af0239 e0f340f9 e0ff00f9   ..R...9..@.....
 0150 fa630239 e0f740f9 e00301f9 e0fb40f9  .c.9..@.......@.
 0160 e01301f9 20008052 e0b30239 20008052  .... ..R...9 ..R
 0170 e0b70239 ffbb0239 ffbf0239 f4830239  ...9...9...9...9
 0180 e00341f9 e00701f9 e1830891 e0830291  ..A.............
 0190 e30301aa e20741f9 e10300aa 00000090  ......A.........
 01a0 00000091 00000094 f40300aa 1f2003d5  ............. ..
 01b0 1f2003d5 1f2003d5 1f2003d5 1f2003d5  . ... ... ... ..
 01c0 e03f40f9 010040f9 e03f40f9 000440f9  .?@...@..?@...@.
 01d0 e16b00f9 f9030239 e06f00f9 e0030291  .k.....9.o......
 01e0 00000094 e10300aa e06f40f9 e07300f9  .........o@..s..
 01f0 e17700f9 e07340f9 e07b00f9 e07740f9  .w...s@..{...w@.
 0200 e07f00f9 e07b40f9 e08300f9 e07f40f9  .....{@.......@.
 0210 e08700f9 e08340f9 e08b00f9 e08b40f9  ......@.......@.
 0220 0000c03d e08b803d e0030891 000442a9  ...=...=......B.
 0230 e2030891 408403a9 e08740f9 00f07dd3  ....@.....@...}.
 0240 e1e30891 206860f8 1f2003d5 1f2003d5  .... h`.. ... ..
 0250 e16b40f9 e18f00f9 e09300f9 f38f40f9  .k@...........@.
 0260 e08f40f9 e09700f9 e09740f9 e1830891  ..@.......@.....
 0270 02004039 e09f4139 00000094 02000014  ..@9..A9........
 0280 00000094 f39b00f9 f8230239 e09340f9  .........#.9..@.
 0290 e09f00f9 20008052 e08b0239 e09b40f9  .... ..R...9..@.
 02a0 e0a300f9 f7430239 e0430891 e0a700f9  .....C.9.C......
 02b0 e09f40f9 e0ab00f9 20008052 e08f0239  ..@..... ..R...9
 02c0 20008052 e0930239 e0a340f9 e0af00f9   ..R...9..@.....
 02d0 f6630239 e0a740f9 e0b300f9 e0ab40f9  .c.9..@.......@.
 02e0 e01301f9 20008052 e0970239 20008052  .... ..R...9 ..R
 02f0 e09b0239 ff9f0239 ffa30239 f5830239  ...9...9...9...9
 0300 e0b340f9 e0b700f9 e1830891 e0830291  ..@.............
 0310 e30301aa e2b740f9 e10300aa 00000090  ......@.........
 0320 00000091 00000094 1f2003d5 1f2003d5  ......... ... ..
 0330 1f2003d5 1f2003d5 1f2003d5 f45b00f9  . ... ... ...[..
 0340 e05f00f9 f3430891 e0830291 00000094  ._...C..........
 0350 e05b40f9 e06300f9 e05f40f9 e06700f9  .[@..c..._@..g..
 0360 e0830891 e26740f9 e16340f9 00000094  .....g@..c@.....
 0370 1f2003d5 e08b803d e0830891 e10300aa  . .....=........
 0380 e00313aa 00000094 1f2003d5 e087c03d  ......... .....=
 0390 00000090 000040f9 e22741f9 010040f9  ......@..'A...@.
 03a0 420001eb 010080d2 40000054 00000094  B.......@..T....
 03b0 f35341a9 f55b42a9 f76343a9 f96b44a9  .SA..[B..cC..kD.
 03c0 fb7345a9 fd7b40a9 ff430991 c0035fd6  .sE..{@..C...._.
Contents of section .text._ZN3eve6detail12wide_storageI13__Float32x4_tEC2ERKDv4_f:
 0000 ff4300d1 e00700f9 e10300f9 e00340f9  .C............@.
 0010 0000c03d e00740f9 0000803d 1f2003d5  ...=..@....=. ..
 0020 ff430091 c0035fd6                    .C...._.        
Contents of section .text._ZNKSt17integral_constantImLm0EEcvmEv:
 0000 ff4300d1 e00700f9 000080d2 ff430091  .C...........C..
 0010 c0035fd6                             .._.            
Contents of section .text._ZNKSt17integral_constantImLm1EEcvmEv:
 0000 ff4300d1 e00700f9 200080d2 ff430091  .C...... ....C..
 0010 c0035fd6                             .._.            
Contents of section .text._ZNK3eve6detail10neon_makerIdNS_5fixedILl2EEEEclIJddEEEDaDpT_:
 0000 ffc300d1 e00f00f9 e00b00fd e10700fd  ................
 0010 00e4006f e00b803d e00b40fd e10740fd  ...o...=..@...@.
 0020 2004186e e00b803d e00bc03d ffc30091   ..n...=...=....
 0030 c0035fd6                             .._.            
Contents of section .text._ZNK3eve6detail10neon_makerIlNS_5fixedILl2EEEEclIJllEEEDaDpT_:
 0000 ffc300d1 e00f00f9 e10b00f9 e20700f9  ................
 0010 0004004f e00b803d e00b40fd e10740fd  ...O...=..@...@.
 0020 2004186e e00b803d e00bc03d ffc30091   ..n...=...=....
 0030 c0035fd6                             .._.            
Contents of section .text._ZN3eve6detail12wide_storageI11__Int32x4_tEC2ERKDv4_i:
 0000 ff4300d1 e00700f9 e10300f9 e00340f9  .C............@.
 0010 0000c03d e00740f9 0000803d 1f2003d5  ...=..@....=. ..
 0020 ff430091 c0035fd6                    .C...._.        
Contents of section .text._ZN3eve6detail12wide_storageI11__Int16x8_tEC2ERKDv8_s:
 0000 ff4300d1 e00700f9 e10300f9 e00340f9  .C............@.
 0010 0000c03d e00740f9 0000803d 1f2003d5  ...=..@....=. ..
 0020 ff430091 c0035fd6                    .C...._.        
Contents of section .text._ZN3eve6detail12wide_storageI11__Int8x16_tEC2ERKDv16_a:
 0000 ff4300d1 e00700f9 e10300f9 e00340f9  .C............@.
 0010 0000c03d e00740f9 0000803d 1f2003d5  ...=..@....=. ..
 0020 ff430091 c0035fd6                    .C...._.        
Contents of section .text._ZN3eve2asINS_10arm_abi_v04wideIdNS_5fixedILl2EEEEEEC2Ev:
 0000 ff4300d1 e00700f9 1f2003d5 ff430091  .C....... ...C..
 0010 c0035fd6                             .._.            
Contents of section .text._ZN3eve6detail12wide_storageI13__Float64x2_tEC2ERKDv2_d:
 0000 ff4300d1 e00700f9 e10300f9 e00340f9  .C............@.
 0010 0000c03d e00740f9 0000803d 1f2003d5  ...=..@....=. ..
 0020 ff430091 c0035fd6                    .C...._.        
Contents of section .text._ZN3eve2asINS_10arm_abi_v04wideIlNS_5fixedILl2EEEEEEC2Ev:
 0000 ff4300d1 e00700f9 1f2003d5 ff430091  .C....... ...C..
 0010 c0035fd6                             .._.            
Contents of section .text._ZN3eve6detail12wide_storageI11__Int64x2_tEC2ERKDv2_l:
 0000 ff4300d1 e00700f9 e10300f9 e00340f9  .C............@.
 0010 0000c03d e00740f9 0000803d 1f2003d5  ...=..@....=. ..
 0020 ff430091 c0035fd6                    .C...._.        
Contents of section .text._ZN3eve6detail4abs_IdNS_7optionsIN3rbr8settingsIJNS3_6optionINS0_15condition_key_tENS_12ignore_none_EEEEEEEEEET_RKNS0_12adl_helper_tERKNS_4cpu_ERKT0_RKSB_:
 0000 fd7bb4a9 fd030091 f35301a9 f55b02a9  .{.......S...[..
 0010 f71b00f9 e81f00fd e02f00f9 e12b00f9  ........./...+..
 0020 e22700f9 e32300f9 00000090 000040f9  .'...#........@.
 0030 010040f9 e15f00f9 010080d2 e02340f9  ..@.._.......#@.
 0040 080040fd e0830191 e12340f9 00000094  ..@......#@.....
 0050 00000090 13000091 00000090 00000091  ................
 0060 e04700f9 e04740f9 e1e30191 02004039  .G...G@.......@9
 0070 e003172a 00000094 02000014 00000094  ...*............
 0080 f34b00f9 f4c30139 e0830191 e04f00f9  .K.....9.....O..
 0090 e04f40f9 e05300f9 e0e30191 e05700f9  .O@..S.......W..
 00a0 0000f0d2 0000679e e05b00fd e05b40fd  ......g..[...[@.
 00b0 1f2003d5 e83b00fd e03f00fd 00000090  . ...;...?......
 00c0 13000091 00000090 00000091 e04300f9  .............C..
 00d0 e04340f9 e1a30191 02004039 e003162a  .C@.......@9...*
 00e0 00000094 02000014 00000094 e2e30191  ................
 00f0 e1c30191 e0a30191 e40302aa e30301aa  ................
 0100 e20300aa e103152a e00313aa 00000094  .......*........
 0110 00000090 000040f9 e25f40f9 010040f9  ......@.._@...@.
 0120 420001eb 010080d2 40000054 00000094  B.......@..T....
 0130 e81f40fd f35341a9 f55b42a9 f71b40f9  ..@..SA..[B...@.
 0140 fd7bcca8 c0035fd6                    .{...._.        
Contents of section .text._ZN3eve6detail4abs_IlNS_7optionsIN3rbr8settingsIJNS3_6optionINS0_15condition_key_tENS_12ignore_none_EEEEEEEEEET_RKNS0_12adl_helper_tERKNS_4cpu_ERKT0_RKSB_:
 0000 ff8300d1 e00f00f9 e10b00f9 e20700f9  ................
 0010 e30300f9 e00340f9 000040f9 1f0000f1  ......@...@.....
 0020 00a480da ff830091 c0035fd6           .........._.    
Contents of section .text._ZN3eve2asIdEC2ERKd:
 0000 ff4300d1 e00700f9 e10300f9 1f2003d5  .C........... ..
 0010 ff430091 c0035fd6                    .C...._.        
Contents of section .text._ZZN4kumi9fold_leftIZNK3eve14decorated_withINS1_7optionsIN3rbr8settingsIJEEEEEJNS1_18conditional_optionENS1_15downward_optionENS1_13upward_optionEEE7optionsEvEUlT_RKT0_E_NS_5tupleIJS8_S9_SA_EEES7_EEDaSC_OSD_T1_ENKUlSt16integer_sequenceImJXspT_EEEE_clIJLm0ELm1ELm2EEEEDaSM_:
 0000 fd7bb4a9 fd030091 f30b00f9 e01700f9  .{..............
 0010 e1830039 00000090 000040f9 010040f9  ...9......@...@.
 0020 e15f00f9 010080d2 e01740f9 000440f9  ._........@...@.
 0030 e04b00f9 e04b40f9 e04f00f9 e4a30239  .K...K@..O.....9
 0040 e04f40f9 e05300f9 1f2003d5 1f2003d5  .O@..S... ... ..
 0050 e01740f9 000440f9 e03f00f9 e03f40f9  ..@...@..?...?@.
 0060 e04300f9 e3a30239 e04340f9 e04700f9  .C.....9.C@..G..
 0070 1f2003d5 1f2003d5 e01740f9 000440f9  . ... ....@...@.
 0080 e03300f9 e03340f9 e03700f9 e2a30239  .3...3@..7.....9
 0090 e03740f9 e03b00f9 1f2003d5 1f2003d5  .7@..;... ... ..
 00a0 e01740f9 000840f9 e05b00f9 e1a30291  ..@...@..[......
 00b0 e0230191 00000094 e1430191 e0030191  .#.......C......
 00c0 00000094 e1630191 e0e30091 00000094  .....c..........
 00d0 00000090 000040f9 e25f40f9 010040f9  ......@.._@...@.
 00e0 420001eb 010080d2 40000054 00000094  B.......@..T....
 00f0 e003132a f30b40f9 fd7bcca8 c0035fd6  ...*..@..{...._.
Contents of section .text._ZZNK3eve14decorated_withINS_7optionsIN3rbr8settingsIJEEEEEJNS_18conditional_optionENS_15downward_optionENS_13upward_optionEEE7optionsEvENKUlT_RKT0_E_clIS5_S8_EEDaSA_SD_:
 0000 ffc300d1 e00f00f9 e1430039 e20700f9  .........C.9....
 0010 e00740f9 e01700f9 1f2003d5 1f2003d5  ..@...... ... ..
 0020 e003032a ffc30091 c0035fd6           ...*......_.    
Contents of section .text._ZN4kumi1_rsIRN3eve7optionsIN3rbr8settingsIJEEEEEEEDcONS0_8foldableIZNKS2_14decorated_withIS7_JNS2_18conditional_optionENS2_15downward_optionENS2_13upward_optionEEE7optionsEvEUlT_RKT0_E_SD_EEONS9_ISJ_SF_EE:
 0000 fd7bbda9 fd030091 f30b00f9 e01700f9  .{..............
 0010 e11300f9 e31740f9 e01340f9 000440f9  ......@...@...@.
 0020 e11740f9 21040091 e20301aa 01004039  ..@.!.........@9
 0030 e00303aa 00000094 e003132a f30b40f9  ...........*..@.
 0040 fd7bc3a8 c0035fd6                    .{...._.        
Contents of section .text._ZZNK3eve14decorated_withINS_7optionsIN3rbr8settingsIJEEEEEJNS_18conditional_optionENS_15downward_optionENS_13upward_optionEEE7optionsEvENKUlT_RKT0_E_clIS5_S7_EEDaSA_SD_:
 0000 ffc300d1 e00f00f9 e1430039 e20700f9  .........C.9....
 0010 e00740f9 e01700f9 1f2003d5 1f2003d5  ..@...... ... ..
 0020 e003032a ffc30091 c0035fd6           ...*......_.    
Contents of section .text._ZN4kumi1_rsIN3eve7optionsIN3rbr8settingsIJEEEEEEEDcONS0_8foldableIZNKS2_14decorated_withIS7_JNS2_18conditional_optionENS2_15downward_optionENS2_13upward_optionEEE7optionsEvEUlT_RKT0_E_SB_EEONS8_ISI_SE_EE:
 0000 fd7bbda9 fd030091 f30b00f9 e01700f9  .{..............
 0010 e11300f9 e31740f9 e01740f9 01040091  ......@...@.....
 0020 e01340f9 e20301aa 01044039 e00303aa  ..@.......@9....
 0030 00000094 e003132a f30b40f9 fd7bc3a8  .......*..@..{..
 0040 c0035fd6                             .._.            
Contents of section .text._ZZNK3eve14decorated_withINS_7optionsIN3rbr8settingsIJEEEEEJNS_18conditional_optionENS_15downward_optionENS_13upward_optionEEE7optionsEvENKUlT_RKT0_E_clIS5_S6_EEDaSA_SD_:
 0000 fd7bbaa9 fd030091 f35301a9 e01f00f9  .{.......S......
 0010 e1c30039 e21700f9 00000090 000040f9  ...9..........@.
 0020 010040f9 e12f00f9 010080d2 e01740f9  ..@../........@.
 0030 e02b00f9 f3c30091 00000090 01000091  .+..............
 0040 00000090 00000091 00000094 e0230191  .............#..
 0050 e1030191 00000094 1f2003d5 e0230191  ......... ...#..
 0060 e10300aa e00313aa 00000094 1f2003d5  ............. ..
 0070 1f2003d5 1f2003d5 00000090 000040f9  . ... ........@.
 0080 e22f40f9 010040f9 420001eb 010080d2  ./@...@.B.......
 0090 40000054 00000094 e003142a f35341a9  @..T.......*.SA.
 00a0 fd7bc6a8 c0035fd6                    .{...._.        
Contents of section .text._ZN4kumi1_rsIN3eve7optionsIN3rbr8settingsIJEEEEEEEDcONS0_8foldableIZNKS2_14decorated_withIS7_JNS2_18conditional_optionENS2_15downward_optionENS2_13upward_optionEEE7optionsEvEUlT_RKT0_E_SA_EEONS8_ISI_SE_EE:
 0000 fd7bbda9 fd030091 f30b00f9 e01700f9  .{..............
 0010 e11300f9 e31740f9 e01740f9 01040091  ......@...@.....
 0020 e01340f9 e20301aa 01044039 e00303aa  ..@.......@9....
 0030 00000094 e003132a f30b40f9 fd7bc3a8  .......*..@..{..
 0040 c0035fd6                             .._.            
Contents of section .text._ZN4kumi9fold_leftIZNK3eve14decorated_withINS1_7optionsIN3rbr8settingsIJEEEEEJNS1_18conditional_optionENS1_15downward_optionENS1_13upward_optionEEE7optionsEvEUlT_RKT0_E_NS_5tupleIJS8_S9_SA_EEES7_EEDaSC_OSD_T1_:
 0000 fd7bbaa9 fd030091 f30b00f9 e0e30039  .{.............9
 0010 e11b00f9 e2a30039 00000090 000040f9  .......9......@.
 0020 010040f9 e12f00f9 010080d2 e0e30091  ..@../..........
 0030 e02300f9 e01b40f9 e02700f9 e0a30091  .#....@..'......
 0040 e02b00f9 e0030191 e103032a 00000094  .+.........*....
 0050 1f2003d5 00000090 000040f9 e22f40f9  . ........@../@.
 0060 010040f9 420001eb 010080d2 40000054  ..@.B.......@..T
 0070 00000094 e003132a f30b40f9 fd7bc6a8  .......*..@..{..
 0080 c0035fd6                             .._.            
Contents of section .text._ZZN4kumi9fold_leftIZNK3eve14decorated_withINS1_7optionsIN3rbr8settingsIJEEEEEJNS1_18conditional_optionEEE7optionsEvEUlT_RKT0_E_NS_5tupleIJS8_EEES7_EEDaSA_OSB_T1_ENKUlSt16integer_sequenceImJXspT_EEEE_clIJLm0EEEEDaSK_:
 0000 fd7bb9a9 fd030091 f30b00f9 e01700f9  .{..............
 0010 e1830039 00000090 000040f9 010040f9  ...9......@...@.
 0020 e13700f9 010080d2 e01740f9 000440f9  .7........@...@.
 0030 e02300f9 e02340f9 e02700f9 e2630139  .#...#@..'...c.9
 0040 e02740f9 e02b00f9 1f2003d5 1f2003d5  .'@..+... ... ..
 0050 e01740f9 000840f9 e03300f9 e1630191  ..@...@..3...c..
 0060 e0e30091 00000094 00000090 000040f9  ..............@.
 0070 e23740f9 010040f9 420001eb 010080d2  .7@...@.B.......
 0080 40000054 00000094 e003132a f30b40f9  @..T.......*..@.
 0090 fd7bc7a8 c0035fd6                    .{...._.        
Contents of section .text._ZZNK3eve14decorated_withINS_7optionsIN3rbr8settingsIJEEEEEJNS_18conditional_optionEEE7optionsEvENKUlT_RKT0_E_clIS5_S6_EEDaS8_SB_:
 0000 fd7bbaa9 fd030091 f35301a9 e01f00f9  .{.......S......
 0010 e1c30039 e21700f9 00000090 000040f9  ...9..........@.
 0020 010040f9 e12f00f9 010080d2 e01740f9  ..@../........@.
 0030 e02b00f9 f3c30091 00000090 01000091  .+..............
 0040 00000090 00000091 00000094 e0230191  .............#..
 0050 e1030191 00000094 1f2003d5 e0230191  ......... ...#..
 0060 e10300aa e00313aa 00000094 1f2003d5  ............. ..
 0070 1f2003d5 1f2003d5 00000090 000040f9  . ... ........@.
 0080 e22f40f9 010040f9 420001eb 010080d2  ./@...@.B.......
 0090 40000054 00000094 e003142a f35341a9  @..T.......*.SA.
 00a0 fd7bc6a8 c0035fd6                    .{...._.        
Contents of section .text._ZN4kumi1_rsIRN3eve7optionsIN3rbr8settingsIJEEEEEEEDcONS0_8foldableIZNKS2_14decorated_withIS7_JNS2_18conditional_optionEEE7optionsEvEUlT_RKT0_E_SB_EEONS9_ISH_SD_EE:
 0000 fd7bbda9 fd030091 f30b00f9 e01700f9  .{..............
 0010 e11300f9 e31740f9 e01340f9 000440f9  ......@...@...@.
 0020 e11740f9 21040091 e20301aa 01004039  ..@.!.........@9
 0030 e00303aa 00000094 e003132a f30b40f9  ...........*..@.
 0040 fd7bc3a8 c0035fd6                    .{...._.        
Contents of section .text._ZN4kumi9fold_leftIZNK3eve14decorated_withINS1_7optionsIN3rbr8settingsIJEEEEEJNS1_18conditional_optionEEE7optionsEvEUlT_RKT0_E_NS_5tupleIJS8_EEES7_EEDaSA_OSB_T1_:
 0000 fd7bbaa9 fd030091 f30b00f9 e0e30039  .{.............9
 0010 e11b00f9 e2a30039 00000090 000040f9  .......9......@.
 0020 010040f9 e12f00f9 010080d2 e0e30091  ..@../..........
 0030 e02300f9 e01b40f9 e02700f9 e0a30091  .#....@..'......
 0040 e02b00f9 e0030191 e103032a 00000094  .+.........*....
 0050 1f2003d5 00000090 000040f9 e22f40f9  . ........@../@.
 0060 010040f9 420001eb 010080d2 40000054  ..@.B.......@..T
 0070 00000094 e003132a f30b40f9 fd7bc6a8  .......*..@..{..
 0080 c0035fd6                             .._.            
Contents of section .text._ZNK3eve21strict_tuple_callableINS_12bit_andnot_tENS_7optionsIN3rbr8settingsIJEEEEEJEE8behaviorINS2_INS4_IJNS3_6optionINS_6detail15condition_key_tENS_12ignore_none_EEEEEEEEdJdENS_6asimd_EEEDaT2_RKT_RKT0_DpRKT1_:
 0000 ff4308d1 fd7b00a9 fd030091 f35301a9  .C...{.......S..
 0010 f55b02a9 f76303a9 f96b04a9 e03f00f9  .[...c...k...?..
 0020 e1c30139 e23700f9 e33300f9 e42f00f9  ...9.7...3.../..
 0030 00000090 000040f9 010040f9 e10701f9  ......@...@.....
 0040 010080d2 e03f40f9 e13340f9 200040fd  .....?@..3@. .@.
 0050 e07b00f9 e7230239 e03740f9 e07f00f9  .{...#.9.7@.....
 0060 e08300fd e02f40f9 e08700f9 20008052  ...../@..... ..R
 0070 e0f30239 e07b40f9 e08b00f9 e6430239  ...9.{@......C.9
 0080 e07f40f9 e08f00f9 e08340fd e06700fd  ..@.......@..g..
 0090 e08740f9 e09300f9 20008052 e0f70239  ..@..... ..R...9
 00a0 fffb0239 ffff0239 ff030339 e5630239  ...9...9...9.c.9
 00b0 e08f40f9 e09700f9 e09340f9 e09b00f9  ..@.......@.....
 00c0 e16740fd e09b40f9 000040fd e09740f9  .g@...@...@...@.
 00d0 e09f00f9 e16f00fd e06b00fd e0e30291  .....o...k......
 00e0 00000094 e0630391 e0a300f9 e0e30291  .....c..........
 00f0 e0a700f9 e1a30391 e0830391 e3a740f9  ..............@.
 0100 e2a340f9 00000094 e0a340f9 e0ab00f9  ..@.......@.....
 0110 e0a740f9 e0af00f9 e0ab40f9 000040f9  ..@.......@...@.
 0120 e07700f9 e07740f9 1f2003d5 1f2003d5  .w...w@.. ... ..
 0130 e0b300f9 e0e30291 00000094 e0430391  .............C..
 0140 e0b700f9 e0e30291 e0bb00f9 e1a30391  ................
 0150 e0830391 e3bb40f9 e2b740f9 00000094  ......@...@.....
 0160 e0b740f9 e0bf00f9 e0bb40f9 e0c300f9  ..@.......@.....
 0170 e0bf40f9 000040f9 e07700f9 e07740f9  ..@...@..w...w@.
 0180 1f2003d5 1f2003d5 e0c700f9 e0c740f9  . ... ........@.
 0190 e0cb00f9 00000090 13000091 00000090  ................
 01a0 00000091 e0cf00f9 e0cf40f9 e1a30391  ..........@.....
 01b0 02004039 e0031a2a 00000094 02000014  ..@9...*........
 01c0 00000094 f3d300f9 f7830239 e0cb40f9  ...........9..@.
 01d0 e0d700f9 20008052 e0070339 e0d340f9  .... ..R...9..@.
 01e0 e0db00f9 f6a30239 e0830391 e0df00f9  .......9........
 01f0 e0d740f9 e0e300f9 20008052 e00b0339  ..@..... ..R...9
 0200 20008052 e00f0339 e0db40f9 e0e700f9   ..R...9..@.....
 0210 f5c30239 e0df40f9 e0eb00f9 e0e340f9  ...9..@.......@.
 0220 e07700f9 20008052 e0130339 20008052  .w.. ..R...9 ..R
 0230 e0170339 ff1b0339 ff1f0339 f4e30239  ...9...9...9...9
 0240 e0eb40f9 e0ef00f9 e1a30391 e0e30291  ..@.............
 0250 e30301aa e2ef40f9 e10300aa 00000090  ......@.........
 0260 00000091 00000094 e10300aa 1f2003d5  ............. ..
 0270 1f2003d5 1f2003d5 1f2003d5 e0b340f9  . ... ... ....@.
 0280 e07700f9 e17300f9 00000090 13000091  .w...s..........
 0290 00000090 00000091 e0f300f9 e0f340f9  ..............@.
 02a0 e1e30291 02004039 e003192a 00000094  ......@9...*....
 02b0 02000014 00000094 e2830391 e1a30391  ................
 02c0 e0e30291 e40302aa e30301aa e20300aa  ................
 02d0 e103182a e00313aa 00000094 e07700f9  ...*.........w..
 02e0 e0c30291 00000094 e0a30391 e0f700f9  ................
 02f0 e0c30291 e0fb00f9 e1830391 e0e30291  ................
 0300 e3fb40f9 e2f740f9 00000094 e0f740f9  ..@...@.......@.
 0310 e0ff00f9 e0fb40f9 e00301f9 e0ff40f9  ......@.......@.
 0320 000040f9 e07300f9 e07340fd 1f2003d5  ..@..s...s@.. ..
 0330 1f2003d5 1f2003d5 1f2003d5 1f2003d5  . ... ... ... ..
 0340 1f2003d5 00000090 000040f9 e20741f9  . ........@...A.
 0350 010040f9 420001eb 010080d2 40000054  ..@.B.......@..T
 0360 00000094 f35341a9 f55b42a9 f76343a9  .....SA..[B..cC.
 0370 f96b44a9 fd7b40a9 ff430891 c0035fd6  .kD..{@..C...._.
Contents of section .text._ZN3eve2asIlEC2Ev:
 0000 ff4300d1 e00700f9 1f2003d5 ff430091  .C....... ...C..
 0010 c0035fd6                             .._.            
Contents of section .text._ZN3eve6detail5checkINS0_5typesIJNS_3tag9bit_cast_EEEEJdNS_2asIlEEEEEvRKNS0_7delay_tERKT_DpRKT0_:
 0000 ff8300d1 e00f00f9 e10b00f9 e20700f9  ................
 0010 e30300f9 1f2003d5 ff830091 c0035fd6  ..... ........_.
Contents of section .text._ZNK3eve21strict_tuple_callableINS_9bit_and_tENS_7optionsIN3rbr8settingsIJEEEEEJEE8behaviorINS2_INS4_IJNS3_6optionINS_6detail15condition_key_tENS_12ignore_none_EEEEEEEElJlENS_6asimd_EEEDaT2_RKT_RKT0_DpRKT1_:
 0000 fd7ba9a9 fd030091 e01f00f9 e1c30039  .{.............9
 0010 e21700f9 e31300f9 e40f00f9 00000090  ................
 0020 000040f9 010040f9 e1b700f9 010080d2  ..@...@.........
 0030 e11f40f9 e01340f9 000040f9 e14700f9  ..@...@...@..G..
 0040 e7230139 e11740f9 e14b00f9 e04f00f9  .#.9..@..K...O..
 0050 e00f40f9 e05300f9 20008052 e0cf0139  ..@..S.. ..R...9
 0060 e04740f9 e05700f9 e6430139 e04b40f9  .G@..W...C.9.K@.
 0070 e05b00f9 e04f40f9 e03f00f9 e05340f9  .[...O@..?...S@.
 0080 e05f00f9 20008052 e0d30139 ffd70139  ._.. ..R...9...9
 0090 ffdb0139 ffdf0139 e5630139 e05b40f9  ...9...9.c.9.[@.
 00a0 e06300f9 e05f40f9 e06700f9 e06340f9  .c..._@..g...c@.
 00b0 e06b00f9 e0e30191 e06f00f9 e06740f9  .k.......o...g@.
 00c0 e07300f9 e0a30191 00000094 e06f40f9  .s...........o@.
 00d0 e07700f9 e07740f9 e07b00f9 e0a30191  .w...w@..{......
 00e0 e07f00f9 e1030291 e0c30191 e37f40f9  ..............@.
 00f0 e27b40f9 00000094 e07b40f9 e08300f9  .{@......{@.....
 0100 e07f40f9 e08700f9 e08340f9 000040f9  ..@.......@...@.
 0110 1f2003d5 1f2003d5 e08b00f9 e0a30191  . ... ..........
 0120 00000094 e07340f9 e08f00f9 e08f40f9  .....s@.......@.
 0130 e09300f9 e0a30191 e09700f9 e1030291  ................
 0140 e0c30191 e39740f9 e29340f9 00000094  ......@...@.....
 0150 e09340f9 e09b00f9 e09740f9 e09f00f9  ..@.......@.....
 0160 e09b40f9 000040f9 1f2003d5 1f2003d5  ..@...@.. ... ..
 0170 e0a300f9 e18b40f9 e0a340f9 2000008a  ......@...@. ...
 0180 e04300f9 e0830191 00000094 e0030291  .C..............
 0190 e0a700f9 e0830191 e0ab00f9 e1c30191  ................
 01a0 e0a30191 e3ab40f9 e2a740f9 00000094  ......@...@.....
 01b0 e0a740f9 e0af00f9 e0ab40f9 e0b300f9  ..@.......@.....
 01c0 e0af40f9 000040f9 1f2003d5 1f2003d5  ..@...@.. ... ..
 01d0 1f2003d5 1f2003d5 1f2003d5 1f2003d5  . ... ... ... ..
 01e0 e10300aa 00000090 000040f9 e3b740f9  ..........@...@.
 01f0 020040f9 630002eb 020080d2 40000054  ..@.c.......@..T
 0200 00000094 e00301aa fd7bd7a8 c0035fd6  .........{...._.
Contents of section .text._ZN3eve6detail5checkINS0_5typesIJNS_3tag9bit_cast_EEEEJlNS_2asIdEEEEEvRKNS0_7delay_tERKT_DpRKT0_:
 0000 ff8300d1 e00f00f9 e10b00f9 e20700f9  ................
 0010 e30300f9 1f2003d5 ff830091 c0035fd6  ..... ........_.
Contents of section .text._ZN3eve6detail8bit_not_IlNS_7optionsIN3rbr8settingsIJNS3_6optionINS0_15condition_key_tENS_12ignore_none_EEEEEEEEEET_RKNS0_12adl_helper_tERKNS_4cpu_ERKT0_RKSB_:
 0000 ff8300d1 e00f00f9 e10b00f9 e20700f9  ................
 0010 e30300f9 e00340f9 000040f9 e00320aa  ......@...@... .
 0020 ff830091 c0035fd6                    ......_.        
Contents of section .text._ZN3eve6detail5checkINS0_5typesIJNS_3tag9bit_cast_EEEEJlNS_2asIlEEEEEvRKNS0_7delay_tERKT_DpRKT0_:
 0000 ff8300d1 e00f00f9 e10b00f9 e20700f9  ................
 0010 e30300f9 1f2003d5 ff830091 c0035fd6  ..... ........_.
Contents of section .init_array:
 0000 00000000 00000000                    ........        
Contents of section .data.rel.local.DW.ref.__gxx_personality_v0:
 0000 00000000 00000000                    ........        
Contents of section .comment:
 0000 00474343 3a202855 62756e74 75203131  .GCC: (Ubuntu 11
 0010 2e342e30 2d317562 756e7475 317e3232  .4.0-1ubuntu1~22
 0020 2e303429 2031312e 342e3000           .04) 11.4.0.    
Contents of section .eh_frame:
 0000 10000000 00000000 017a5200 04781e01  .........zR..x..
 0010 1b0c1f00 14000000 18000000 00000000  ................
 0020 14000000 00410e10 430e0000 18000000  .....A..C.......
 0030 00000000 017a504c 52000478 1e079b00  .....zPLR..x....
 0040 0000001b 1b0c1f00 30000000 20000000  ........0... ...
 0050 00000000 80010000 04000000 00410ed0  .............A..
 0060 029d2a9e 29449328 94279526 96259724  ..*.)D.(.'.&.%.$
 0070 025adedd d7d5d6d3 d40e0000 30000000  .Z..........0...
 0080 54000000 00000000 88010000 04000000  T...............
 0090 00410ec0 029d289e 27449326 94259524  .A....(.'D.&.%.$
 00a0 96239722 025cdedd d7d5d6d3 d40e0000  .#.".\..........
 00b0 30000000 88000000 00000000 88010000  0...............
 00c0 04000000 00410ec0 029d289e 27449326  .....A....(.'D.&
 00d0 94259524 96239722 025cdedd d7d5d6d3  .%.$.#.".\......
 00e0 d40e0000 30000000 bc000000 00000000  ....0...........
 00f0 84010000 04000000 00410ed0 029d2a9e  .........A....*.
 0100 29449328 94279526 96259724 025bdedd  )D.(.'.&.%.$.[..
 0110 d7d5d6d3 d40e0000 30000000 f0000000  ........0.......
 0120 00000000 84010000 04000000 00410ed0  .............A..
 0130 029d2a9e 29449328 94279526 96259724  ..*.)D.(.'.&.%.$
 0140 025bdedd d7d5d6d3 d40e0000 30000000  .[..........0...
 0150 24010000 00000000 84010000 04000000  $...............
 0160 00410ed0 029d2a9e 29449328 94279526  .A....*.)D.(.'.&
 0170 96259724 025bdedd d7d5d6d3 d40e0000  .%.$.[..........
 0180 30000000 58010000 00000000 54010000  0...X.......T...
 0190 04000000 00410ea0 029d249e 23449322  .....A....$.#D."
 01a0 94219520 961f971e 024fdedd d7d5d6d3  .!. .....O......
 01b0 d40e0000 30000000 8c010000 00000000  ....0...........
 01c0 54010000 04000000 00410ea0 029d249e  T........A....$.
 01d0 23449322 94219520 961f971e 024fdedd  #D.".!. .....O..
 01e0 d7d5d6d3 d40e0000 30000000 c0010000  ........0.......
 01f0 00000000 54010000 04000000 00410ea0  ....T........A..
 0200 029d249e 23449322 94219520 961f971e  ..$.#D.".!. ....
 0210 024fdedd d7d5d6d3 d40e0000 30000000  .O..........0...
 0220 f4010000 00000000 54010000 04000000  ........T.......
 0230 00410ea0 029d249e 23449322 94219520  .A....$.#D.".!. 
 0240 961f971e 024fdedd d7d5d6d3 d40e0000  .....O..........
 0250 30000000 28020000 00000000 54010000  0...(.......T...
 0260 04000000 00410ea0 029d249e 23449322  .....A....$.#D."
 0270 94219520 961f971e 024fdedd d7d5d6d3  .!. .....O......
 0280 d40e0000 30000000 5c020000 00000000  ....0...\.......
 0290 54010000 04000000 00410ea0 029d249e  T........A....$.
 02a0 23449322 94219520 961f971e 024fdedd  #D.".!. .....O..
 02b0 d7d5d6d3 d40e0000 30000000 90020000  ........0.......
 02c0 00000000 54010000 04000000 00410ea0  ....T........A..
 02d0 029d249e 23449322 94219520 961f971e  ..$.#D.".!. ....
 02e0 024fdedd d7d5d6d3 d40e0000 30000000  .O..........0...
 02f0 c4020000 00000000 54010000 04000000  ........T.......
 0300 00410ea0 029d249e 23449322 94219520  .A....$.#D.".!. 
 0310 961f971e 024fdedd d7d5d6d3 d40e0000  .....O..........
 0320 20000000 24030000 00000000 cc000000   ...$...........
 0330 00410e90 019d129e 11429310 6fdeddd3  .A.......B..o...
 0340 0e000000 14000000 48030000 00000000  ........H.......
 0350 2c000000 00410e30 490e0000 20000000  ,....A.0I... ...
 0360 60030000 00000000 48000000 00410e30  `.......H....A.0
 0370 9d069e05 4293044e deddd30e 00000000  ....B..N........
 0380 20000000 84030000 00000000 a8000000   ...............
 0390 00410e60 9d0c9e0b 42930a94 0966dedd  .A.`....B....f..
 03a0 d3d40e00 14000000 a8030000 00000000  ................
 03b0 18000000 00410e10 440e0000 20000000  .....A..D... ...
 03c0 c0030000 00000000 88000000 00410e60  .............A.`
 03d0 9d0c9e0b 42930a5e deddd30e 00000000  ....B..^........
 03e0 20000000 e4030000 00000000 80000000   ...............
 03f0 00410e60 9d0c9e0b 42930a5c deddd30e  .A.`....B..\....
 0400 00000000 20000000 08040000 00000000  .... ...........
 0410 34000000 00410e30 9d069e05 42930449  4....A.0....B..I
 0420 deddd30e 00000000 14000000 2c040000  ............,...
 0430 00000000 18000000 00410e10 440e0000  .........A..D...
 0440 20000000 44040000 00000000 78000000   ...D.......x...
 0450 00410e50 9d0a9e09 4293085a deddd30e  .A.P....B..Z....
 0460 00000000 20000000 68040000 00000000  .... ...h.......
 0470 44000000 00410e30 9d069e05 4293044d  D....A.0....B..M
 0480 deddd30e 00000000 20000000 8c040000  ........ .......
 0490 00000000 84000000 00410e60 9d0c9e0b  .........A.`....
 04a0 42930a5d deddd30e 00000000 14000000  B..]............
 04b0 b0040000 00000000 1c000000 00410e10  .............A..
 04c0 450e0000 14000000 c8040000 00000000  E...............
 04d0 18000000 00410e10 440e0000 1c000000  .....A..D.......
 04e0 e0040000 00000000 28000000 00410e20  ........(....A. 
 04f0 9d049e03 48dedd0e 00000000 14000000  ....H...........
 0500 00050000 00000000 18000000 00410e10  .............A..
 0510 440e0000 1c000000 18050000 00000000  D...............
 0520 28000000 00410e20 9d049e03 48dedd0e  (....A. ....H...
 0530 00000000 1c000000 38050000 00000000  ........8.......
 0540 28000000 00410e20 9d049e03 48dedd0e  (....A. ....H...
 0550 00000000 44000000 2c050000 00000000  ....D...,.......
 0560 d8030000 04000000 00410ee0 04419d4c  .........A...A.L
 0570 9e4b4793 4a944995 48964797 46984599  .KG.J.I.H.G.F.E.
 0580 449a439b 429c4105 484002ec dddedbdc  D.C.B.A.H@......
 0590 d9dad7d8 d5d6d3d4 06480e00 1c000000  .........H......
 05a0 a0050000 00000000 28000000 00410e20  ........(....A. 
 05b0 9d049e03 48dedd0e 00000000 40000000  ....H.......@...
 05c0 94050000 00000000 d0030000 04000000  ................
 05d0 00410ed0 04419d4a 9e494693 48944795  .A...A.J.IF.H.G.
 05e0 46964597 44984399 429a419b 409c3f02  F.E.D.C.B.A.@.?.
 05f0 ebdddedb dcd9dad7 d8d5d6d3 d40e0000  ................
 0600 14000000 04060000 00000000 28000000  ............(...
 0610 00410e10 480e0000 14000000 1c060000  .A..H...........
 0620 00000000 14000000 00410e10 430e0000  .........A..C...
 0630 14000000 34060000 00000000 14000000  ....4...........
 0640 00410e10 430e0000 14000000 4c060000  .A..C.......L...
 0650 00000000 34000000 00410e30 4b0e0000  ....4....A.0K...
 0660 14000000 64060000 00000000 34000000  ....d.......4...
 0670 00410e30 4b0e0000 14000000 7c060000  .A.0K.......|...
 0680 00000000 28000000 00410e10 480e0000  ....(....A..H...
 0690 14000000 94060000 00000000 28000000  ............(...
 06a0 00410e10 480e0000 14000000 ac060000  .A..H...........
 06b0 00000000 28000000 00410e10 480e0000  ....(....A..H...
 06c0 14000000 c4060000 00000000 14000000  ................
 06d0 00410e10 430e0000 14000000 dc060000  .A..C...........
 06e0 00000000 28000000 00410e10 480e0000  ....(....A..H...
 06f0 14000000 f4060000 00000000 14000000  ................
 0700 00410e10 430e0000 14000000 0c070000  .A..C...........
 0710 00000000 28000000 00410e10 480e0000  ....(....A..H...
 0720 34000000 f8060000 00000000 48010000  4...........H...
 0730 04000000 00410ec0 019d189e 17459316  .....A.......E..
 0740 94159514 96139712 05481102 4bdeddd7  .........H..K...
 0750 d5d6d3d4 06480e00 14000000 5c070000  .....H......\...
 0760 00000000 2c000000 00410e20 490e0000  ....,....A. I...
 0770 14000000 74070000 00000000 18000000  ....t...........
 0780 00410e10 440e0000 20000000 8c070000  .A..D... .......
 0790 00000000 00010000 00410ec0 019d189e  .........A......
 07a0 17429316 7cdeddd3 0e000000 14000000  .B..|...........
 07b0 b0070000 00000000 2c000000 00410e30  ........,....A.0
 07c0 490e0000 20000000 c8070000 00000000  I... ...........
 07d0 48000000 00410e30 9d069e05 4293044e  H....A.0....B..N
 07e0 deddd30e 00000000 14000000 ec070000  ................
 07f0 00000000 2c000000 00410e30 490e0000  ....,....A.0I...
 0800 20000000 04080000 00000000 44000000   ...........D...
 0810 00410e30 9d069e05 4293044d deddd30e  .A.0....B..M....
 0820 00000000 20000000 28080000 00000000  .... ...(.......
 0830 a8000000 00410e60 9d0c9e0b 42930a94  .....A.`....B...
 0840 0966dedd d3d40e00 20000000 4c080000  .f...... ...L...
 0850 00000000 44000000 00410e30 9d069e05  ....D....A.0....
 0860 4293044d deddd30e 00000000 20000000  B..M........ ...
 0870 70080000 00000000 84000000 00410e60  p............A.`
 0880 9d0c9e0b 42930a5d deddd30e 00000000  ....B..]........
 0890 20000000 94080000 00000000 98000000   ...............
 08a0 00410e70 9d0e9e0d 42930c62 deddd30e  .A.p....B..b....
 08b0 00000000 20000000 b8080000 00000000  .... ...........
 08c0 a8000000 00410e60 9d0c9e0b 42930a94  .....A.`....B...
 08d0 0966dedd d3d40e00 20000000 dc080000  .f...... .......
 08e0 00000000 48000000 00410e30 9d069e05  ....H....A.0....
 08f0 4293044e deddd30e 00000000 20000000  B..N........ ...
 0900 00090000 00000000 84000000 00410e60  .............A.`
 0910 9d0c9e0b 42930a5d deddd30e 00000000  ....B..]........
 0920 3c000000 f8080000 00000000 80030000  <...............
 0930 04000000 00410e90 04419d42 9e414593  .....A...A.B.AE.
 0940 40943f95 3e963d97 3c983b99 3a9a3902  @.?.>.=.<.;.:.9.
 0950 d8ddded9 dad7d8d5 d6d3d40e 00000000  ................
 0960 14000000 64090000 00000000 14000000  ....d...........
 0970 00410e10 430e0000 14000000 7c090000  .A..C.......|...
 0980 00000000 20000000 00410e20 460e0000  .... ....A. F...
 0990 1c000000 94090000 00000000 10020000  ................
 09a0 00410ef0 029d2e9e 2d0282de dd0e0000  .A......-.......
 09b0 14000000 b4090000 00000000 20000000  ............ ...
 09c0 00410e20 460e0000 14000000 cc090000  .A. F...........
 09d0 00000000 28000000 00410e20 480e0000  ....(....A. H...
 09e0 14000000 e4090000 00000000 20000000  ............ ...
 09f0 00410e20 460e0000 1c000000 fc090000  .A. F...........
 0a00 00000000 60000000 00410e20 9d049e03  ....`....A. ....
 0a10 56dedd0e 00000000 1c000000 1c0a0000  V...............
 0a20 00000000 1c000000 00410e10 9d029e01  .........A......
 0a30 45dedd0e 00000000                    E.......        

Disassembly of section .group:

0000000000000000 <.group>:
   0:	00000001 	udf	#1
   4:	00000047 	udf	#71

Disassembly of section .group:

0000000000000000 <.group>:
   0:	00000001 	udf	#1
   4:	00000048 	udf	#72

Disassembly of section .group:

0000000000000000 <.group>:
   0:	00000001 	udf	#1
   4:	00000049 	udf	#73

Disassembly of section .group:

0000000000000000 <.group>:
   0:	00000001 	udf	#1
   4:	0000004a 	udf	#74

Disassembly of section .group:

0000000000000000 <.group>:
   0:	00000001 	udf	#1
   4:	0000004b 	udf	#75

Disassembly of section .group:

0000000000000000 <.group>:
   0:	00000001 	udf	#1
   4:	0000004c 	udf	#76

Disassembly of section .group:

0000000000000000 <.group>:
   0:	00000001 	udf	#1
   4:	0000004d 	udf	#77

Disassembly of section .group:

0000000000000000 <.group>:
   0:	00000001 	udf	#1
   4:	0000004e 	udf	#78

Disassembly of section .group:

0000000000000000 <.group>:
   0:	00000001 	udf	#1
   4:	0000004f 	udf	#79

Disassembly of section .group:

0000000000000000 <.group>:
   0:	00000001 	udf	#1
   4:	00000051 	udf	#81
   8:	00000052 	udf	#82

Disassembly of section .group:

0000000000000000 <.group>:
   0:	00000001 	udf	#1
   4:	00000053 	udf	#83

Disassembly of section .group:

0000000000000000 <.group>:
   0:	00000001 	udf	#1
   4:	00000054 	udf	#84
   8:	00000055 	udf	#85

Disassembly of section .group:

0000000000000000 <.group>:
   0:	00000001 	udf	#1
   4:	00000056 	udf	#86
   8:	00000057 	udf	#87

Disassembly of section .group:

0000000000000000 <.group>:
   0:	00000001 	udf	#1
   4:	00000058 	udf	#88

Disassembly of section .group:

0000000000000000 <.group>:
   0:	00000001 	udf	#1
   4:	00000059 	udf	#89
   8:	0000005a 	udf	#90

Disassembly of section .group:

0000000000000000 <.group>:
   0:	00000001 	udf	#1
   4:	0000005b 	udf	#91
   8:	0000005c 	udf	#92

Disassembly of section .group:

0000000000000000 <.group>:
   0:	00000001 	udf	#1
   4:	0000005d 	udf	#93
   8:	0000005e 	udf	#94

Disassembly of section .group:

0000000000000000 <.group>:
   0:	00000001 	udf	#1
   4:	0000005f 	udf	#95

Disassembly of section .group:

0000000000000000 <.group>:
   0:	00000001 	udf	#1
   4:	00000060 	udf	#96
   8:	00000061 	udf	#97

Disassembly of section .group:

0000000000000000 <.group>:
   0:	00000001 	udf	#1
   4:	00000062 	udf	#98
   8:	00000063 	udf	#99

Disassembly of section .group:

0000000000000000 <.group>:
   0:	00000001 	udf	#1
   4:	00000064 	udf	#100
   8:	00000065 	udf	#101

Disassembly of section .group:

0000000000000000 <.group>:
   0:	00000001 	udf	#1
   4:	00000066 	udf	#102

Disassembly of section .group:

0000000000000000 <rbr::aggregator<rbr::option<eve::detail::condition_key_t, eve::ignore_none_> >::aggregator(rbr::option<eve::detail::condition_key_t, eve::ignore_none_> const&)>:
   0:	00000001 	udf	#1
   4:	00000067 	udf	#103

Disassembly of section .group:

0000000000000000 <rbr::settings<rbr::option<eve::detail::condition_key_t, eve::ignore_none_> >::settings(rbr::option<eve::detail::condition_key_t, eve::ignore_none_> const&)>:
   0:	00000001 	udf	#1
   4:	00000068 	udf	#104
   8:	00000069 	udf	#105

Disassembly of section .group:

0000000000000000 <rbr::aggregator<rbr::option<eve::detail::condition_key_t, eve::ignore_none_ const&> >::aggregator(rbr::option<eve::detail::condition_key_t, eve::ignore_none_ const&> const&)>:
   0:	00000001 	udf	#1
   4:	0000006a 	udf	#106

Disassembly of section .group:

0000000000000000 <rbr::settings<rbr::option<eve::detail::condition_key_t, eve::ignore_none_ const&> >::settings(rbr::option<eve::detail::condition_key_t, eve::ignore_none_ const&> const&)>:
   0:	00000001 	udf	#1
   4:	0000006b 	udf	#107
   8:	0000006c 	udf	#108

Disassembly of section .group:

0000000000000000 <.group>:
   0:	00000001 	udf	#1
   4:	0000006d 	udf	#109
   8:	0000006e 	udf	#110

Disassembly of section .group:

0000000000000000 <.group>:
   0:	00000001 	udf	#1
   4:	0000006f 	udf	#111
   8:	00000070 	udf	#112

Disassembly of section .group:

0000000000000000 <.group>:
   0:	00000001 	udf	#1
   4:	00000071 	udf	#113
   8:	00000072 	udf	#114

Disassembly of section .group:

0000000000000000 <.group>:
   0:	00000001 	udf	#1
   4:	00000073 	udf	#115
   8:	00000074 	udf	#116

Disassembly of section .group:

0000000000000000 <eve::detail::wide_storage<__Float32x4_t>::wide_storage(float __vector(4) const&)>:
   0:	00000001 	udf	#1
   4:	00000075 	udf	#117

Disassembly of section .group:

0000000000000000 <.group>:
   0:	00000001 	udf	#1
   4:	00000076 	udf	#118

Disassembly of section .group:

0000000000000000 <.group>:
   0:	00000001 	udf	#1
   4:	00000077 	udf	#119

Disassembly of section .group:

0000000000000000 <.group>:
   0:	00000001 	udf	#1
   4:	00000078 	udf	#120

Disassembly of section .group:

0000000000000000 <.group>:
   0:	00000001 	udf	#1
   4:	00000079 	udf	#121

Disassembly of section .group:

0000000000000000 <eve::detail::wide_storage<__Int32x4_t>::wide_storage(int __vector(4) const&)>:
   0:	00000001 	udf	#1
   4:	0000007a 	udf	#122

Disassembly of section .group:

0000000000000000 <eve::detail::wide_storage<__Int16x8_t>::wide_storage(short __vector(8) const&)>:
   0:	00000001 	udf	#1
   4:	0000007b 	udf	#123

Disassembly of section .group:

0000000000000000 <eve::detail::wide_storage<__Int8x16_t>::wide_storage(signed char __vector(16) const&)>:
   0:	00000001 	udf	#1
   4:	0000007c 	udf	#124

Disassembly of section .group:

0000000000000000 <eve::as<eve::arm_abi_v0::wide<double, eve::fixed<2l> > >::as()>:
   0:	00000001 	udf	#1
   4:	0000007d 	udf	#125

Disassembly of section .group:

0000000000000000 <eve::detail::wide_storage<__Float64x2_t>::wide_storage(double __vector(2) const&)>:
   0:	00000001 	udf	#1
   4:	0000007e 	udf	#126

Disassembly of section .group:

0000000000000000 <eve::as<eve::arm_abi_v0::wide<long, eve::fixed<2l> > >::as()>:
   0:	00000001 	udf	#1
   4:	0000007f 	udf	#127

Disassembly of section .group:

0000000000000000 <eve::detail::wide_storage<__Int64x2_t>::wide_storage(long __vector(2) const&)>:
   0:	00000001 	udf	#1
   4:	00000080 	udf	#128

Disassembly of section .group:

0000000000000000 <.group>:
   0:	00000001 	udf	#1
   4:	00000081 	udf	#129
   8:	00000082 	udf	#130

Disassembly of section .group:

0000000000000000 <.group>:
   0:	00000001 	udf	#1
   4:	00000083 	udf	#131

Disassembly of section .group:

0000000000000000 <eve::as<double>::as(double const&)>:
   0:	00000001 	udf	#1
   4:	00000084 	udf	#132

Disassembly of section .group:

0000000000000000 <.group>:
   0:	00000001 	udf	#1
   4:	00000085 	udf	#133
   8:	00000086 	udf	#134

Disassembly of section .group:

0000000000000000 <.group>:
   0:	00000001 	udf	#1
   4:	00000087 	udf	#135

Disassembly of section .group:

0000000000000000 <.group>:
   0:	00000001 	udf	#1
   4:	00000088 	udf	#136
   8:	00000089 	udf	#137

Disassembly of section .group:

0000000000000000 <.group>:
   0:	00000001 	udf	#1
   4:	0000008a 	udf	#138

Disassembly of section .group:

0000000000000000 <.group>:
   0:	00000001 	udf	#1
   4:	0000008b 	udf	#139
   8:	0000008c 	udf	#140

Disassembly of section .group:

0000000000000000 <.group>:
   0:	00000001 	udf	#1
   4:	0000008d 	udf	#141
   8:	0000008e 	udf	#142

Disassembly of section .group:

0000000000000000 <.group>:
   0:	00000001 	udf	#1
   4:	0000008f 	udf	#143
   8:	00000090 	udf	#144

Disassembly of section .group:

0000000000000000 <.group>:
   0:	00000001 	udf	#1
   4:	00000091 	udf	#145
   8:	00000092 	udf	#146

Disassembly of section .group:

0000000000000000 <.group>:
   0:	00000001 	udf	#1
   4:	00000093 	udf	#147
   8:	00000094 	udf	#148

Disassembly of section .group:

0000000000000000 <.group>:
   0:	00000001 	udf	#1
   4:	00000095 	udf	#149
   8:	00000096 	udf	#150

Disassembly of section .group:

0000000000000000 <.group>:
   0:	00000001 	udf	#1
   4:	00000097 	udf	#151
   8:	00000098 	udf	#152

Disassembly of section .group:

0000000000000000 <.group>:
   0:	00000001 	udf	#1
   4:	00000099 	udf	#153
   8:	0000009a 	udf	#154

Disassembly of section .group:

0000000000000000 <.group>:
   0:	00000001 	udf	#1
   4:	0000009b 	udf	#155
   8:	0000009c 	udf	#156

Disassembly of section .group:

0000000000000000 <eve::as<long>::as()>:
   0:	00000001 	udf	#1
   4:	0000009d 	udf	#157

Disassembly of section .group:

0000000000000000 <.group>:
   0:	00000001 	udf	#1
   4:	0000009e 	udf	#158

Disassembly of section .group:

0000000000000000 <.group>:
   0:	00000001 	udf	#1
   4:	0000009f 	udf	#159
   8:	000000a0 	udf	#160

Disassembly of section .group:

0000000000000000 <.group>:
   0:	00000001 	udf	#1
   4:	000000a1 	udf	#161

Disassembly of section .group:

0000000000000000 <.group>:
   0:	00000001 	udf	#1
   4:	000000a2 	udf	#162

Disassembly of section .group:

0000000000000000 <.group>:
   0:	00000001 	udf	#1
   4:	000000a3 	udf	#163

Disassembly of section .group:

0000000000000000 <.group>:
   0:	00000001 	udf	#1
   4:	000000a6 	udf	#166
   8:	000000a7 	udf	#167

Disassembly of section .text:

0000000000000000 <func_abs_0(eve::arm_abi_v0::wide<float, eve::fixed<4l> >)>:
       0:	a9ab7bfd 	stp	x29, x30, [sp, #-336]!
       4:	910003fd 	mov	x29, sp
       8:	a90153f3 	stp	x19, x20, [sp, #16]
       c:	a9025bf5 	stp	x21, x22, [sp, #32]
      10:	f9001bf7 	str	x23, [sp, #48]
      14:	3d8013e0 	str	q0, [sp, #64]
      18:	90000000 	adrp	x0, 0 <__stack_chk_guard>
      1c:	f9400000 	ldr	x0, [x0]
      20:	f9400001 	ldr	x1, [x0]
      24:	f900a7e1 	str	x1, [sp, #328]
      28:	d2800001 	mov	x1, #0x0                   	// #0
      2c:	3dc013e0 	ldr	q0, [sp, #64]
      30:	3d8037e0 	str	q0, [sp, #208]
      34:	90000000 	adrp	x0, 0 <func_abs_0(eve::arm_abi_v0::wide<float, eve::fixed<4l> >)>
      38:	91000013 	add	x19, x0, #0x0
      3c:	90000000 	adrp	x0, 0 <func_abs_0(eve::arm_abi_v0::wide<float, eve::fixed<4l> >)>
      40:	91000000 	add	x0, x0, #0x0
      44:	f90043e0 	str	x0, [sp, #128]
      48:	f94043e0 	ldr	x0, [sp, #128]
      4c:	910483e1 	add	x1, sp, #0x120
      50:	39400002 	ldrb	w2, [x0]
      54:	2a0303e0 	mov	w0, w3
      58:	94000000 	bl	0 <func_abs_0(eve::arm_abi_v0::wide<float, eve::fixed<4l> >)>
      5c:	14000002 	b	64 <func_abs_0(eve::arm_abi_v0::wide<float, eve::fixed<4l> >)+0x64>
      60:	94000000 	bl	0 <std::terminate()>
      64:	f90047f3 	str	x19, [sp, #136]
      68:	390143f7 	strb	w23, [sp, #80]
      6c:	3dc037e0 	ldr	q0, [sp, #208]
      70:	3d803be0 	str	q0, [sp, #224]
      74:	52800020 	mov	w0, #0x1                   	// #1
      78:	3901d7e0 	strb	w0, [sp, #117]
      7c:	f94047e0 	ldr	x0, [sp, #136]
      80:	f9004be0 	str	x0, [sp, #144]
      84:	390163f6 	strb	w22, [sp, #88]
      88:	9101c3e0 	add	x0, sp, #0x70
      8c:	f9004fe0 	str	x0, [sp, #152]
      90:	3dc03be0 	ldr	q0, [sp, #224]
      94:	3d803fe0 	str	q0, [sp, #240]
      98:	52800020 	mov	w0, #0x1                   	// #1
      9c:	3901dbe0 	strb	w0, [sp, #118]
      a0:	52800020 	mov	w0, #0x1                   	// #1
      a4:	3901dfe0 	strb	w0, [sp, #119]
      a8:	f9404be0 	ldr	x0, [sp, #144]
      ac:	f90053e0 	str	x0, [sp, #160]
      b0:	390183f5 	strb	w21, [sp, #96]
      b4:	f9404fe0 	ldr	x0, [sp, #152]
      b8:	f90057e0 	str	x0, [sp, #168]
      bc:	3dc03fe0 	ldr	q0, [sp, #240]
      c0:	3d8043e0 	str	q0, [sp, #256]
      c4:	52800020 	mov	w0, #0x1                   	// #1
      c8:	3901e3e0 	strb	w0, [sp, #120]
      cc:	52800020 	mov	w0, #0x1                   	// #1
      d0:	3901e7e0 	strb	w0, [sp, #121]
      d4:	3901ebff 	strb	wzr, [sp, #122]
      d8:	3901efff 	strb	wzr, [sp, #123]
      dc:	3901a3f4 	strb	w20, [sp, #104]
      e0:	f94057e0 	ldr	x0, [sp, #168]
      e4:	f9005be0 	str	x0, [sp, #176]
      e8:	f9405be0 	ldr	x0, [sp, #176]
      ec:	f9005fe0 	str	x0, [sp, #184]
      f0:	910403e0 	add	x0, sp, #0x100
      f4:	f90063e0 	str	x0, [sp, #192]
      f8:	52800080 	mov	w0, #0x4                   	// #4
      fc:	72a24800 	movk	w0, #0x1240, lsl #16
     100:	b9007fe0 	str	w0, [sp, #124]
     104:	f94063e0 	ldr	x0, [sp, #192]
     108:	f90067e0 	str	x0, [sp, #200]
     10c:	f94067e0 	ldr	x0, [sp, #200]
     110:	3dc00000 	ldr	q0, [x0]
     114:	3d804fe0 	str	q0, [sp, #304]
     118:	3dc04fe0 	ldr	q0, [sp, #304]
     11c:	4ea0f800 	fabs	v0.4s, v0.4s
     120:	3d804be0 	str	q0, [sp, #288]
     124:	910443e0 	add	x0, sp, #0x110
     128:	910483e1 	add	x1, sp, #0x120
     12c:	94000000 	bl	0 <func_abs_0(eve::arm_abi_v0::wide<float, eve::fixed<4l> >)>
     130:	d503201f 	nop
     134:	3dc047e0 	ldr	q0, [sp, #272]
     138:	d503201f 	nop
     13c:	d503201f 	nop
     140:	d503201f 	nop
     144:	d503201f 	nop
     148:	d503201f 	nop
     14c:	90000000 	adrp	x0, 0 <__stack_chk_guard>
     150:	f9400000 	ldr	x0, [x0]
     154:	f940a7e2 	ldr	x2, [sp, #328]
     158:	f9400001 	ldr	x1, [x0]
     15c:	eb010042 	subs	x2, x2, x1
     160:	d2800001 	mov	x1, #0x0                   	// #0
     164:	54000040 	b.eq	16c <func_abs_0(eve::arm_abi_v0::wide<float, eve::fixed<4l> >)+0x16c>  // b.none
     168:	94000000 	bl	0 <__stack_chk_fail>
     16c:	a94153f3 	ldp	x19, x20, [sp, #16]
     170:	a9425bf5 	ldp	x21, x22, [sp, #32]
     174:	f9401bf7 	ldr	x23, [sp, #48]
     178:	a8d57bfd 	ldp	x29, x30, [sp], #336
     17c:	d65f03c0 	ret

0000000000000180 <func_abs_1(eve::arm_abi_v0::wide<double, eve::fixed<2l> >)>:
     180:	a9ac7bfd 	stp	x29, x30, [sp, #-320]!
     184:	910003fd 	mov	x29, sp
     188:	a90153f3 	stp	x19, x20, [sp, #16]
     18c:	a9025bf5 	stp	x21, x22, [sp, #32]
     190:	f9001bf7 	str	x23, [sp, #48]
     194:	3d8013e0 	str	q0, [sp, #64]
     198:	90000000 	adrp	x0, 0 <__stack_chk_guard>
     19c:	f9400000 	ldr	x0, [x0]
     1a0:	f9400001 	ldr	x1, [x0]
     1a4:	f9009fe1 	str	x1, [sp, #312]
     1a8:	d2800001 	mov	x1, #0x0                   	// #0
     1ac:	3dc013e0 	ldr	q0, [sp, #64]
     1b0:	3d803be0 	str	q0, [sp, #224]
     1b4:	90000000 	adrp	x0, 0 <func_abs_0(eve::arm_abi_v0::wide<float, eve::fixed<4l> >)>
     1b8:	91000013 	add	x19, x0, #0x0
     1bc:	90000000 	adrp	x0, 0 <func_abs_0(eve::arm_abi_v0::wide<float, eve::fixed<4l> >)>
     1c0:	91000000 	add	x0, x0, #0x0
     1c4:	f9004be0 	str	x0, [sp, #144]
     1c8:	f9404be0 	ldr	x0, [sp, #144]
     1cc:	9104a3e1 	add	x1, sp, #0x128
     1d0:	39400002 	ldrb	w2, [x0]
     1d4:	2a0303e0 	mov	w0, w3
     1d8:	94000000 	bl	0 <func_abs_0(eve::arm_abi_v0::wide<float, eve::fixed<4l> >)>
     1dc:	14000002 	b	1e4 <func_abs_1(eve::arm_abi_v0::wide<double, eve::fixed<2l> >)+0x64>
     1e0:	94000000 	bl	0 <std::terminate()>
     1e4:	f9004ff3 	str	x19, [sp, #152]
     1e8:	390143f7 	strb	w23, [sp, #80]
     1ec:	3dc03be0 	ldr	q0, [sp, #224]
     1f0:	3d803fe0 	str	q0, [sp, #240]
     1f4:	52800020 	mov	w0, #0x1                   	// #1
     1f8:	3901f7e0 	strb	w0, [sp, #125]
     1fc:	f9404fe0 	ldr	x0, [sp, #152]
     200:	f90053e0 	str	x0, [sp, #160]
     204:	390163f6 	strb	w22, [sp, #88]
     208:	9101e3e0 	add	x0, sp, #0x78
     20c:	f90057e0 	str	x0, [sp, #168]
     210:	3dc03fe0 	ldr	q0, [sp, #240]
     214:	3d8043e0 	str	q0, [sp, #256]
     218:	52800020 	mov	w0, #0x1                   	// #1
     21c:	3901fbe0 	strb	w0, [sp, #126]
     220:	52800020 	mov	w0, #0x1                   	// #1
     224:	3901ffe0 	strb	w0, [sp, #127]
     228:	f94053e0 	ldr	x0, [sp, #160]
     22c:	f9005be0 	str	x0, [sp, #176]
     230:	390183f5 	strb	w21, [sp, #96]
     234:	f94057e0 	ldr	x0, [sp, #168]
     238:	f9005fe0 	str	x0, [sp, #184]
     23c:	3dc043e0 	ldr	q0, [sp, #256]
     240:	3d8047e0 	str	q0, [sp, #272]
     244:	52800020 	mov	w0, #0x1                   	// #1
     248:	390203e0 	strb	w0, [sp, #128]
     24c:	52800020 	mov	w0, #0x1                   	// #1
     250:	390207e0 	strb	w0, [sp, #129]
     254:	39020bff 	strb	wzr, [sp, #130]
     258:	39020fff 	strb	wzr, [sp, #131]
     25c:	3901a3f4 	strb	w20, [sp, #104]
     260:	f9405fe0 	ldr	x0, [sp, #184]
     264:	f90063e0 	str	x0, [sp, #192]
     268:	f94063e0 	ldr	x0, [sp, #192]
     26c:	f90067e0 	str	x0, [sp, #200]
     270:	910443e0 	add	x0, sp, #0x110
     274:	f9006be0 	str	x0, [sp, #208]
     278:	52800040 	mov	w0, #0x2                   	// #2
     27c:	72a25000 	movk	w0, #0x1280, lsl #16
     280:	b90087e0 	str	w0, [sp, #132]
     284:	f9406be0 	ldr	x0, [sp, #208]
     288:	f9006fe0 	str	x0, [sp, #216]
     28c:	90000000 	adrp	x0, 0 <func_abs_0(eve::arm_abi_v0::wide<float, eve::fixed<4l> >)>
     290:	91000000 	add	x0, x0, #0x0
     294:	f90097e0 	str	x0, [sp, #296]
     298:	f9406fe0 	ldr	x0, [sp, #216]
     29c:	f9009be0 	str	x0, [sp, #304]
     2a0:	9104a3e0 	add	x0, sp, #0x128
     2a4:	f90047e0 	str	x0, [sp, #136]
     2a8:	9101c3e1 	add	x1, sp, #0x70
     2ac:	910223e0 	add	x0, sp, #0x88
     2b0:	94000000 	bl	0 <func_abs_0(eve::arm_abi_v0::wide<float, eve::fixed<4l> >)>
     2b4:	d503201f 	nop
     2b8:	d503201f 	nop
     2bc:	d503201f 	nop
     2c0:	d503201f 	nop
     2c4:	d503201f 	nop
     2c8:	d503201f 	nop
     2cc:	d503201f 	nop
     2d0:	d503201f 	nop
     2d4:	90000000 	adrp	x0, 0 <__stack_chk_guard>
     2d8:	f9400000 	ldr	x0, [x0]
     2dc:	f9409fe2 	ldr	x2, [sp, #312]
     2e0:	f9400001 	ldr	x1, [x0]
     2e4:	eb010042 	subs	x2, x2, x1
     2e8:	d2800001 	mov	x1, #0x0                   	// #0
     2ec:	54000040 	b.eq	2f4 <func_abs_1(eve::arm_abi_v0::wide<double, eve::fixed<2l> >)+0x174>  // b.none
     2f0:	94000000 	bl	0 <__stack_chk_fail>
     2f4:	a94153f3 	ldp	x19, x20, [sp, #16]
     2f8:	a9425bf5 	ldp	x21, x22, [sp, #32]
     2fc:	f9401bf7 	ldr	x23, [sp, #48]
     300:	a8d47bfd 	ldp	x29, x30, [sp], #320
     304:	d65f03c0 	ret

0000000000000308 <func_abs_2(eve::arm_abi_v0::wide<long, eve::fixed<2l> >)>:
     308:	a9ac7bfd 	stp	x29, x30, [sp, #-320]!
     30c:	910003fd 	mov	x29, sp
     310:	a90153f3 	stp	x19, x20, [sp, #16]
     314:	a9025bf5 	stp	x21, x22, [sp, #32]
     318:	f9001bf7 	str	x23, [sp, #48]
     31c:	3d8013e0 	str	q0, [sp, #64]
     320:	90000000 	adrp	x0, 0 <__stack_chk_guard>
     324:	f9400000 	ldr	x0, [x0]
     328:	f9400001 	ldr	x1, [x0]
     32c:	f9009fe1 	str	x1, [sp, #312]
     330:	d2800001 	mov	x1, #0x0                   	// #0
     334:	3dc013e0 	ldr	q0, [sp, #64]
     338:	3d803be0 	str	q0, [sp, #224]
     33c:	90000000 	adrp	x0, 0 <func_abs_0(eve::arm_abi_v0::wide<float, eve::fixed<4l> >)>
     340:	91000013 	add	x19, x0, #0x0
     344:	90000000 	adrp	x0, 0 <func_abs_0(eve::arm_abi_v0::wide<float, eve::fixed<4l> >)>
     348:	91000000 	add	x0, x0, #0x0
     34c:	f9004be0 	str	x0, [sp, #144]
     350:	f9404be0 	ldr	x0, [sp, #144]
     354:	9104a3e1 	add	x1, sp, #0x128
     358:	39400002 	ldrb	w2, [x0]
     35c:	2a0303e0 	mov	w0, w3
     360:	94000000 	bl	0 <func_abs_0(eve::arm_abi_v0::wide<float, eve::fixed<4l> >)>
     364:	14000002 	b	36c <func_abs_2(eve::arm_abi_v0::wide<long, eve::fixed<2l> >)+0x64>
     368:	94000000 	bl	0 <std::terminate()>
     36c:	f9004ff3 	str	x19, [sp, #152]
     370:	390143f7 	strb	w23, [sp, #80]
     374:	3dc03be0 	ldr	q0, [sp, #224]
     378:	3d803fe0 	str	q0, [sp, #240]
     37c:	52800020 	mov	w0, #0x1                   	// #1
     380:	3901f7e0 	strb	w0, [sp, #125]
     384:	f9404fe0 	ldr	x0, [sp, #152]
     388:	f90053e0 	str	x0, [sp, #160]
     38c:	390163f6 	strb	w22, [sp, #88]
     390:	9101e3e0 	add	x0, sp, #0x78
     394:	f90057e0 	str	x0, [sp, #168]
     398:	3dc03fe0 	ldr	q0, [sp, #240]
     39c:	3d8043e0 	str	q0, [sp, #256]
     3a0:	52800020 	mov	w0, #0x1                   	// #1
     3a4:	3901fbe0 	strb	w0, [sp, #126]
     3a8:	52800020 	mov	w0, #0x1                   	// #1
     3ac:	3901ffe0 	strb	w0, [sp, #127]
     3b0:	f94053e0 	ldr	x0, [sp, #160]
     3b4:	f9005be0 	str	x0, [sp, #176]
     3b8:	390183f5 	strb	w21, [sp, #96]
     3bc:	f94057e0 	ldr	x0, [sp, #168]
     3c0:	f9005fe0 	str	x0, [sp, #184]
     3c4:	3dc043e0 	ldr	q0, [sp, #256]
     3c8:	3d8047e0 	str	q0, [sp, #272]
     3cc:	52800020 	mov	w0, #0x1                   	// #1
     3d0:	390203e0 	strb	w0, [sp, #128]
     3d4:	52800020 	mov	w0, #0x1                   	// #1
     3d8:	390207e0 	strb	w0, [sp, #129]
     3dc:	39020bff 	strb	wzr, [sp, #130]
     3e0:	39020fff 	strb	wzr, [sp, #131]
     3e4:	3901a3f4 	strb	w20, [sp, #104]
     3e8:	f9405fe0 	ldr	x0, [sp, #184]
     3ec:	f90063e0 	str	x0, [sp, #192]
     3f0:	f94063e0 	ldr	x0, [sp, #192]
     3f4:	f90067e0 	str	x0, [sp, #200]
     3f8:	910443e0 	add	x0, sp, #0x110
     3fc:	f9006be0 	str	x0, [sp, #208]
     400:	52800040 	mov	w0, #0x2                   	// #2
     404:	72a23000 	movk	w0, #0x1180, lsl #16
     408:	b90087e0 	str	w0, [sp, #132]
     40c:	f9406be0 	ldr	x0, [sp, #208]
     410:	f9006fe0 	str	x0, [sp, #216]
     414:	90000000 	adrp	x0, 0 <func_abs_0(eve::arm_abi_v0::wide<float, eve::fixed<4l> >)>
     418:	91000000 	add	x0, x0, #0x0
     41c:	f90097e0 	str	x0, [sp, #296]
     420:	f9406fe0 	ldr	x0, [sp, #216]
     424:	f9009be0 	str	x0, [sp, #304]
     428:	9104a3e0 	add	x0, sp, #0x128
     42c:	f90047e0 	str	x0, [sp, #136]
     430:	9101c3e1 	add	x1, sp, #0x70
     434:	910223e0 	add	x0, sp, #0x88
     438:	94000000 	bl	0 <func_abs_0(eve::arm_abi_v0::wide<float, eve::fixed<4l> >)>
     43c:	d503201f 	nop
     440:	d503201f 	nop
     444:	d503201f 	nop
     448:	d503201f 	nop
     44c:	d503201f 	nop
     450:	d503201f 	nop
     454:	d503201f 	nop
     458:	d503201f 	nop
     45c:	90000000 	adrp	x0, 0 <__stack_chk_guard>
     460:	f9400000 	ldr	x0, [x0]
     464:	f9409fe2 	ldr	x2, [sp, #312]
     468:	f9400001 	ldr	x1, [x0]
     46c:	eb010042 	subs	x2, x2, x1
     470:	d2800001 	mov	x1, #0x0                   	// #0
     474:	54000040 	b.eq	47c <func_abs_2(eve::arm_abi_v0::wide<long, eve::fixed<2l> >)+0x174>  // b.none
     478:	94000000 	bl	0 <__stack_chk_fail>
     47c:	a94153f3 	ldp	x19, x20, [sp, #16]
     480:	a9425bf5 	ldp	x21, x22, [sp, #32]
     484:	f9401bf7 	ldr	x23, [sp, #48]
     488:	a8d47bfd 	ldp	x29, x30, [sp], #320
     48c:	d65f03c0 	ret

0000000000000490 <func_abs_3(eve::arm_abi_v0::wide<int, eve::fixed<4l> >)>:
     490:	a9ab7bfd 	stp	x29, x30, [sp, #-336]!
     494:	910003fd 	mov	x29, sp
     498:	a90153f3 	stp	x19, x20, [sp, #16]
     49c:	a9025bf5 	stp	x21, x22, [sp, #32]
     4a0:	f9001bf7 	str	x23, [sp, #48]
     4a4:	3d8013e0 	str	q0, [sp, #64]
     4a8:	90000000 	adrp	x0, 0 <__stack_chk_guard>
     4ac:	f9400000 	ldr	x0, [x0]
     4b0:	f9400001 	ldr	x1, [x0]
     4b4:	f900a7e1 	str	x1, [sp, #328]
     4b8:	d2800001 	mov	x1, #0x0                   	// #0
     4bc:	3dc013e0 	ldr	q0, [sp, #64]
     4c0:	3d8037e0 	str	q0, [sp, #208]
     4c4:	90000000 	adrp	x0, 0 <func_abs_0(eve::arm_abi_v0::wide<float, eve::fixed<4l> >)>
     4c8:	91000013 	add	x19, x0, #0x0
     4cc:	90000000 	adrp	x0, 0 <func_abs_0(eve::arm_abi_v0::wide<float, eve::fixed<4l> >)>
     4d0:	91000000 	add	x0, x0, #0x0
     4d4:	f90043e0 	str	x0, [sp, #128]
     4d8:	f94043e0 	ldr	x0, [sp, #128]
     4dc:	910483e1 	add	x1, sp, #0x120
     4e0:	39400002 	ldrb	w2, [x0]
     4e4:	2a0303e0 	mov	w0, w3
     4e8:	94000000 	bl	0 <func_abs_0(eve::arm_abi_v0::wide<float, eve::fixed<4l> >)>
     4ec:	14000002 	b	4f4 <func_abs_3(eve::arm_abi_v0::wide<int, eve::fixed<4l> >)+0x64>
     4f0:	94000000 	bl	0 <std::terminate()>
     4f4:	f90047f3 	str	x19, [sp, #136]
     4f8:	390143f7 	strb	w23, [sp, #80]
     4fc:	3dc037e0 	ldr	q0, [sp, #208]
     500:	3d803be0 	str	q0, [sp, #224]
     504:	52800020 	mov	w0, #0x1                   	// #1
     508:	3901d7e0 	strb	w0, [sp, #117]
     50c:	f94047e0 	ldr	x0, [sp, #136]
     510:	f9004be0 	str	x0, [sp, #144]
     514:	390163f6 	strb	w22, [sp, #88]
     518:	9101c3e0 	add	x0, sp, #0x70
     51c:	f9004fe0 	str	x0, [sp, #152]
     520:	3dc03be0 	ldr	q0, [sp, #224]
     524:	3d803fe0 	str	q0, [sp, #240]
     528:	52800020 	mov	w0, #0x1                   	// #1
     52c:	3901dbe0 	strb	w0, [sp, #118]
     530:	52800020 	mov	w0, #0x1                   	// #1
     534:	3901dfe0 	strb	w0, [sp, #119]
     538:	f9404be0 	ldr	x0, [sp, #144]
     53c:	f90053e0 	str	x0, [sp, #160]
     540:	390183f5 	strb	w21, [sp, #96]
     544:	f9404fe0 	ldr	x0, [sp, #152]
     548:	f90057e0 	str	x0, [sp, #168]
     54c:	3dc03fe0 	ldr	q0, [sp, #240]
     550:	3d8043e0 	str	q0, [sp, #256]
     554:	52800020 	mov	w0, #0x1                   	// #1
     558:	3901e3e0 	strb	w0, [sp, #120]
     55c:	52800020 	mov	w0, #0x1                   	// #1
     560:	3901e7e0 	strb	w0, [sp, #121]
     564:	3901ebff 	strb	wzr, [sp, #122]
     568:	3901efff 	strb	wzr, [sp, #123]
     56c:	3901a3f4 	strb	w20, [sp, #104]
     570:	f94057e0 	ldr	x0, [sp, #168]
     574:	f9005be0 	str	x0, [sp, #176]
     578:	f9405be0 	ldr	x0, [sp, #176]
     57c:	f9005fe0 	str	x0, [sp, #184]
     580:	910403e0 	add	x0, sp, #0x100
     584:	f90063e0 	str	x0, [sp, #192]
     588:	52800080 	mov	w0, #0x4                   	// #4
     58c:	72a22800 	movk	w0, #0x1140, lsl #16
     590:	b9007fe0 	str	w0, [sp, #124]
     594:	f94063e0 	ldr	x0, [sp, #192]
     598:	f90067e0 	str	x0, [sp, #200]
     59c:	f94067e0 	ldr	x0, [sp, #200]
     5a0:	3dc00000 	ldr	q0, [x0]
     5a4:	3d804fe0 	str	q0, [sp, #304]
     5a8:	3dc04fe0 	ldr	q0, [sp, #304]
     5ac:	4ea0b800 	abs	v0.4s, v0.4s
     5b0:	d503201f 	nop
     5b4:	3d804be0 	str	q0, [sp, #288]
     5b8:	910443e0 	add	x0, sp, #0x110
     5bc:	910483e1 	add	x1, sp, #0x120
     5c0:	94000000 	bl	0 <func_abs_0(eve::arm_abi_v0::wide<float, eve::fixed<4l> >)>
     5c4:	d503201f 	nop
     5c8:	3dc047e0 	ldr	q0, [sp, #272]
     5cc:	d503201f 	nop
     5d0:	d503201f 	nop
     5d4:	d503201f 	nop
     5d8:	d503201f 	nop
     5dc:	d503201f 	nop
     5e0:	90000000 	adrp	x0, 0 <__stack_chk_guard>
     5e4:	f9400000 	ldr	x0, [x0]
     5e8:	f940a7e2 	ldr	x2, [sp, #328]
     5ec:	f9400001 	ldr	x1, [x0]
     5f0:	eb010042 	subs	x2, x2, x1
     5f4:	d2800001 	mov	x1, #0x0                   	// #0
     5f8:	54000040 	b.eq	600 <func_abs_3(eve::arm_abi_v0::wide<int, eve::fixed<4l> >)+0x170>  // b.none
     5fc:	94000000 	bl	0 <__stack_chk_fail>
     600:	a94153f3 	ldp	x19, x20, [sp, #16]
     604:	a9425bf5 	ldp	x21, x22, [sp, #32]
     608:	f9401bf7 	ldr	x23, [sp, #48]
     60c:	a8d57bfd 	ldp	x29, x30, [sp], #336
     610:	d65f03c0 	ret

0000000000000614 <func_abs_4(eve::arm_abi_v0::wide<short, eve::fixed<8l> >)>:
     614:	a9ab7bfd 	stp	x29, x30, [sp, #-336]!
     618:	910003fd 	mov	x29, sp
     61c:	a90153f3 	stp	x19, x20, [sp, #16]
     620:	a9025bf5 	stp	x21, x22, [sp, #32]
     624:	f9001bf7 	str	x23, [sp, #48]
     628:	3d8013e0 	str	q0, [sp, #64]
     62c:	90000000 	adrp	x0, 0 <__stack_chk_guard>
     630:	f9400000 	ldr	x0, [x0]
     634:	f9400001 	ldr	x1, [x0]
     638:	f900a7e1 	str	x1, [sp, #328]
     63c:	d2800001 	mov	x1, #0x0                   	// #0
     640:	3dc013e0 	ldr	q0, [sp, #64]
     644:	3d8037e0 	str	q0, [sp, #208]
     648:	90000000 	adrp	x0, 0 <func_abs_0(eve::arm_abi_v0::wide<float, eve::fixed<4l> >)>
     64c:	91000013 	add	x19, x0, #0x0
     650:	90000000 	adrp	x0, 0 <func_abs_0(eve::arm_abi_v0::wide<float, eve::fixed<4l> >)>
     654:	91000000 	add	x0, x0, #0x0
     658:	f90043e0 	str	x0, [sp, #128]
     65c:	f94043e0 	ldr	x0, [sp, #128]
     660:	910483e1 	add	x1, sp, #0x120
     664:	39400002 	ldrb	w2, [x0]
     668:	2a0303e0 	mov	w0, w3
     66c:	94000000 	bl	0 <func_abs_0(eve::arm_abi_v0::wide<float, eve::fixed<4l> >)>
     670:	14000002 	b	678 <func_abs_4(eve::arm_abi_v0::wide<short, eve::fixed<8l> >)+0x64>
     674:	94000000 	bl	0 <std::terminate()>
     678:	f90047f3 	str	x19, [sp, #136]
     67c:	390143f7 	strb	w23, [sp, #80]
     680:	3dc037e0 	ldr	q0, [sp, #208]
     684:	3d803be0 	str	q0, [sp, #224]
     688:	52800020 	mov	w0, #0x1                   	// #1
     68c:	3901d7e0 	strb	w0, [sp, #117]
     690:	f94047e0 	ldr	x0, [sp, #136]
     694:	f9004be0 	str	x0, [sp, #144]
     698:	390163f6 	strb	w22, [sp, #88]
     69c:	9101c3e0 	add	x0, sp, #0x70
     6a0:	f9004fe0 	str	x0, [sp, #152]
     6a4:	3dc03be0 	ldr	q0, [sp, #224]
     6a8:	3d803fe0 	str	q0, [sp, #240]
     6ac:	52800020 	mov	w0, #0x1                   	// #1
     6b0:	3901dbe0 	strb	w0, [sp, #118]
     6b4:	52800020 	mov	w0, #0x1                   	// #1
     6b8:	3901dfe0 	strb	w0, [sp, #119]
     6bc:	f9404be0 	ldr	x0, [sp, #144]
     6c0:	f90053e0 	str	x0, [sp, #160]
     6c4:	390183f5 	strb	w21, [sp, #96]
     6c8:	f9404fe0 	ldr	x0, [sp, #152]
     6cc:	f90057e0 	str	x0, [sp, #168]
     6d0:	3dc03fe0 	ldr	q0, [sp, #240]
     6d4:	3d8043e0 	str	q0, [sp, #256]
     6d8:	52800020 	mov	w0, #0x1                   	// #1
     6dc:	3901e3e0 	strb	w0, [sp, #120]
     6e0:	52800020 	mov	w0, #0x1                   	// #1
     6e4:	3901e7e0 	strb	w0, [sp, #121]
     6e8:	3901ebff 	strb	wzr, [sp, #122]
     6ec:	3901efff 	strb	wzr, [sp, #123]
     6f0:	3901a3f4 	strb	w20, [sp, #104]
     6f4:	f94057e0 	ldr	x0, [sp, #168]
     6f8:	f9005be0 	str	x0, [sp, #176]
     6fc:	f9405be0 	ldr	x0, [sp, #176]
     700:	f9005fe0 	str	x0, [sp, #184]
     704:	910403e0 	add	x0, sp, #0x100
     708:	f90063e0 	str	x0, [sp, #192]
     70c:	52800100 	mov	w0, #0x8                   	// #8
     710:	72a22400 	movk	w0, #0x1120, lsl #16
     714:	b9007fe0 	str	w0, [sp, #124]
     718:	f94063e0 	ldr	x0, [sp, #192]
     71c:	f90067e0 	str	x0, [sp, #200]
     720:	f94067e0 	ldr	x0, [sp, #200]
     724:	3dc00000 	ldr	q0, [x0]
     728:	3d804fe0 	str	q0, [sp, #304]
     72c:	3dc04fe0 	ldr	q0, [sp, #304]
     730:	4e60b800 	abs	v0.8h, v0.8h
     734:	d503201f 	nop
     738:	3d804be0 	str	q0, [sp, #288]
     73c:	910443e0 	add	x0, sp, #0x110
     740:	910483e1 	add	x1, sp, #0x120
     744:	94000000 	bl	0 <func_abs_0(eve::arm_abi_v0::wide<float, eve::fixed<4l> >)>
     748:	d503201f 	nop
     74c:	3dc047e0 	ldr	q0, [sp, #272]
     750:	d503201f 	nop
     754:	d503201f 	nop
     758:	d503201f 	nop
     75c:	d503201f 	nop
     760:	d503201f 	nop
     764:	90000000 	adrp	x0, 0 <__stack_chk_guard>
     768:	f9400000 	ldr	x0, [x0]
     76c:	f940a7e2 	ldr	x2, [sp, #328]
     770:	f9400001 	ldr	x1, [x0]
     774:	eb010042 	subs	x2, x2, x1
     778:	d2800001 	mov	x1, #0x0                   	// #0
     77c:	54000040 	b.eq	784 <func_abs_4(eve::arm_abi_v0::wide<short, eve::fixed<8l> >)+0x170>  // b.none
     780:	94000000 	bl	0 <__stack_chk_fail>
     784:	a94153f3 	ldp	x19, x20, [sp, #16]
     788:	a9425bf5 	ldp	x21, x22, [sp, #32]
     78c:	f9401bf7 	ldr	x23, [sp, #48]
     790:	a8d57bfd 	ldp	x29, x30, [sp], #336
     794:	d65f03c0 	ret

0000000000000798 <func_abs_5(eve::arm_abi_v0::wide<signed char, eve::fixed<16l> >)>:
     798:	a9ab7bfd 	stp	x29, x30, [sp, #-336]!
     79c:	910003fd 	mov	x29, sp
     7a0:	a90153f3 	stp	x19, x20, [sp, #16]
     7a4:	a9025bf5 	stp	x21, x22, [sp, #32]
     7a8:	f9001bf7 	str	x23, [sp, #48]
     7ac:	3d8013e0 	str	q0, [sp, #64]
     7b0:	90000000 	adrp	x0, 0 <__stack_chk_guard>
     7b4:	f9400000 	ldr	x0, [x0]
     7b8:	f9400001 	ldr	x1, [x0]
     7bc:	f900a7e1 	str	x1, [sp, #328]
     7c0:	d2800001 	mov	x1, #0x0                   	// #0
     7c4:	3dc013e0 	ldr	q0, [sp, #64]
     7c8:	3d8037e0 	str	q0, [sp, #208]
     7cc:	90000000 	adrp	x0, 0 <func_abs_0(eve::arm_abi_v0::wide<float, eve::fixed<4l> >)>
     7d0:	91000013 	add	x19, x0, #0x0
     7d4:	90000000 	adrp	x0, 0 <func_abs_0(eve::arm_abi_v0::wide<float, eve::fixed<4l> >)>
     7d8:	91000000 	add	x0, x0, #0x0
     7dc:	f90043e0 	str	x0, [sp, #128]
     7e0:	f94043e0 	ldr	x0, [sp, #128]
     7e4:	910483e1 	add	x1, sp, #0x120
     7e8:	39400002 	ldrb	w2, [x0]
     7ec:	2a0303e0 	mov	w0, w3
     7f0:	94000000 	bl	0 <func_abs_0(eve::arm_abi_v0::wide<float, eve::fixed<4l> >)>
     7f4:	14000002 	b	7fc <func_abs_5(eve::arm_abi_v0::wide<signed char, eve::fixed<16l> >)+0x64>
     7f8:	94000000 	bl	0 <std::terminate()>
     7fc:	f90047f3 	str	x19, [sp, #136]
     800:	390143f7 	strb	w23, [sp, #80]
     804:	3dc037e0 	ldr	q0, [sp, #208]
     808:	3d803be0 	str	q0, [sp, #224]
     80c:	52800020 	mov	w0, #0x1                   	// #1
     810:	3901d7e0 	strb	w0, [sp, #117]
     814:	f94047e0 	ldr	x0, [sp, #136]
     818:	f9004be0 	str	x0, [sp, #144]
     81c:	390163f6 	strb	w22, [sp, #88]
     820:	9101c3e0 	add	x0, sp, #0x70
     824:	f9004fe0 	str	x0, [sp, #152]
     828:	3dc03be0 	ldr	q0, [sp, #224]
     82c:	3d803fe0 	str	q0, [sp, #240]
     830:	52800020 	mov	w0, #0x1                   	// #1
     834:	3901dbe0 	strb	w0, [sp, #118]
     838:	52800020 	mov	w0, #0x1                   	// #1
     83c:	3901dfe0 	strb	w0, [sp, #119]
     840:	f9404be0 	ldr	x0, [sp, #144]
     844:	f90053e0 	str	x0, [sp, #160]
     848:	390183f5 	strb	w21, [sp, #96]
     84c:	f9404fe0 	ldr	x0, [sp, #152]
     850:	f90057e0 	str	x0, [sp, #168]
     854:	3dc03fe0 	ldr	q0, [sp, #240]
     858:	3d8043e0 	str	q0, [sp, #256]
     85c:	52800020 	mov	w0, #0x1                   	// #1
     860:	3901e3e0 	strb	w0, [sp, #120]
     864:	52800020 	mov	w0, #0x1                   	// #1
     868:	3901e7e0 	strb	w0, [sp, #121]
     86c:	3901ebff 	strb	wzr, [sp, #122]
     870:	3901efff 	strb	wzr, [sp, #123]
     874:	3901a3f4 	strb	w20, [sp, #104]
     878:	f94057e0 	ldr	x0, [sp, #168]
     87c:	f9005be0 	str	x0, [sp, #176]
     880:	f9405be0 	ldr	x0, [sp, #176]
     884:	f9005fe0 	str	x0, [sp, #184]
     888:	910403e0 	add	x0, sp, #0x100
     88c:	f90063e0 	str	x0, [sp, #192]
     890:	52800200 	mov	w0, #0x10                  	// #16
     894:	72a22200 	movk	w0, #0x1110, lsl #16
     898:	b9007fe0 	str	w0, [sp, #124]
     89c:	f94063e0 	ldr	x0, [sp, #192]
     8a0:	f90067e0 	str	x0, [sp, #200]
     8a4:	f94067e0 	ldr	x0, [sp, #200]
     8a8:	3dc00000 	ldr	q0, [x0]
     8ac:	3d804fe0 	str	q0, [sp, #304]
     8b0:	3dc04fe0 	ldr	q0, [sp, #304]
     8b4:	4e20b800 	abs	v0.16b, v0.16b
     8b8:	d503201f 	nop
     8bc:	3d804be0 	str	q0, [sp, #288]
     8c0:	910443e0 	add	x0, sp, #0x110
     8c4:	910483e1 	add	x1, sp, #0x120
     8c8:	94000000 	bl	0 <func_abs_0(eve::arm_abi_v0::wide<float, eve::fixed<4l> >)>
     8cc:	d503201f 	nop
     8d0:	3dc047e0 	ldr	q0, [sp, #272]
     8d4:	d503201f 	nop
     8d8:	d503201f 	nop
     8dc:	d503201f 	nop
     8e0:	d503201f 	nop
     8e4:	d503201f 	nop
     8e8:	90000000 	adrp	x0, 0 <__stack_chk_guard>
     8ec:	f9400000 	ldr	x0, [x0]
     8f0:	f940a7e2 	ldr	x2, [sp, #328]
     8f4:	f9400001 	ldr	x1, [x0]
     8f8:	eb010042 	subs	x2, x2, x1
     8fc:	d2800001 	mov	x1, #0x0                   	// #0
     900:	54000040 	b.eq	908 <func_abs_5(eve::arm_abi_v0::wide<signed char, eve::fixed<16l> >)+0x170>  // b.none
     904:	94000000 	bl	0 <__stack_chk_fail>
     908:	a94153f3 	ldp	x19, x20, [sp, #16]
     90c:	a9425bf5 	ldp	x21, x22, [sp, #32]
     910:	f9401bf7 	ldr	x23, [sp, #48]
     914:	a8d57bfd 	ldp	x29, x30, [sp], #336
     918:	d65f03c0 	ret

000000000000091c <func_abs_6(eve::arm_abi_v0::wide<unsigned long, eve::fixed<2l> >)>:
     91c:	a9ae7bfd 	stp	x29, x30, [sp, #-288]!
     920:	910003fd 	mov	x29, sp
     924:	a90153f3 	stp	x19, x20, [sp, #16]
     928:	a9025bf5 	stp	x21, x22, [sp, #32]
     92c:	f9001bf7 	str	x23, [sp, #48]
     930:	3d8013e0 	str	q0, [sp, #64]
     934:	90000000 	adrp	x0, 0 <__stack_chk_guard>
     938:	f9400000 	ldr	x0, [x0]
     93c:	f9400001 	ldr	x1, [x0]
     940:	f9008fe1 	str	x1, [sp, #280]
     944:	d2800001 	mov	x1, #0x0                   	// #0
     948:	3dc013e0 	ldr	q0, [sp, #64]
     94c:	3d8037e0 	str	q0, [sp, #208]
     950:	90000000 	adrp	x0, 0 <func_abs_0(eve::arm_abi_v0::wide<float, eve::fixed<4l> >)>
     954:	91000013 	add	x19, x0, #0x0
     958:	90000000 	adrp	x0, 0 <func_abs_0(eve::arm_abi_v0::wide<float, eve::fixed<4l> >)>
     95c:	91000000 	add	x0, x0, #0x0
     960:	f90047e0 	str	x0, [sp, #136]
     964:	f94047e0 	ldr	x0, [sp, #136]
     968:	910403e1 	add	x1, sp, #0x100
     96c:	39400002 	ldrb	w2, [x0]
     970:	2a0303e0 	mov	w0, w3
     974:	94000000 	bl	0 <func_abs_0(eve::arm_abi_v0::wide<float, eve::fixed<4l> >)>
     978:	14000002 	b	980 <func_abs_6(eve::arm_abi_v0::wide<unsigned long, eve::fixed<2l> >)+0x64>
     97c:	94000000 	bl	0 <std::terminate()>
     980:	f9004bf3 	str	x19, [sp, #144]
     984:	390163f7 	strb	w23, [sp, #88]
     988:	3dc037e0 	ldr	q0, [sp, #208]
     98c:	3d803be0 	str	q0, [sp, #224]
     990:	52800020 	mov	w0, #0x1                   	// #1
     994:	3901f7e0 	strb	w0, [sp, #125]
     998:	f9404be0 	ldr	x0, [sp, #144]
     99c:	f9004fe0 	str	x0, [sp, #152]
     9a0:	390183f6 	strb	w22, [sp, #96]
     9a4:	9101e3e0 	add	x0, sp, #0x78
     9a8:	f90053e0 	str	x0, [sp, #160]
     9ac:	3dc03be0 	ldr	q0, [sp, #224]
     9b0:	3d803fe0 	str	q0, [sp, #240]
     9b4:	52800020 	mov	w0, #0x1                   	// #1
     9b8:	3901fbe0 	strb	w0, [sp, #126]
     9bc:	52800020 	mov	w0, #0x1                   	// #1
     9c0:	3901ffe0 	strb	w0, [sp, #127]
     9c4:	f9404fe0 	ldr	x0, [sp, #152]
     9c8:	f90057e0 	str	x0, [sp, #168]
     9cc:	3901a3f5 	strb	w21, [sp, #104]
     9d0:	f94053e0 	ldr	x0, [sp, #160]
     9d4:	f9005be0 	str	x0, [sp, #176]
     9d8:	3dc03fe0 	ldr	q0, [sp, #240]
     9dc:	3d8043e0 	str	q0, [sp, #256]
     9e0:	52800020 	mov	w0, #0x1                   	// #1
     9e4:	390203e0 	strb	w0, [sp, #128]
     9e8:	52800020 	mov	w0, #0x1                   	// #1
     9ec:	390207e0 	strb	w0, [sp, #129]
     9f0:	39020bff 	strb	wzr, [sp, #130]
     9f4:	39020fff 	strb	wzr, [sp, #131]
     9f8:	3901c3f4 	strb	w20, [sp, #112]
     9fc:	f9405be0 	ldr	x0, [sp, #176]
     a00:	f9005fe0 	str	x0, [sp, #184]
     a04:	f9405fe0 	ldr	x0, [sp, #184]
     a08:	f90063e0 	str	x0, [sp, #192]
     a0c:	910403e0 	add	x0, sp, #0x100
     a10:	f90067e0 	str	x0, [sp, #200]
     a14:	52800040 	mov	w0, #0x2                   	// #2
     a18:	72a43000 	movk	w0, #0x2180, lsl #16
     a1c:	b90087e0 	str	w0, [sp, #132]
     a20:	f94067e0 	ldr	x0, [sp, #200]
     a24:	3dc00000 	ldr	q0, [x0]
     a28:	d503201f 	nop
     a2c:	d503201f 	nop
     a30:	d503201f 	nop
     a34:	d503201f 	nop
     a38:	d503201f 	nop
     a3c:	90000000 	adrp	x0, 0 <__stack_chk_guard>
     a40:	f9400000 	ldr	x0, [x0]
     a44:	f9408fe2 	ldr	x2, [sp, #280]
     a48:	f9400001 	ldr	x1, [x0]
     a4c:	eb010042 	subs	x2, x2, x1
     a50:	d2800001 	mov	x1, #0x0                   	// #0
     a54:	54000040 	b.eq	a5c <func_abs_6(eve::arm_abi_v0::wide<unsigned long, eve::fixed<2l> >)+0x140>  // b.none
     a58:	94000000 	bl	0 <__stack_chk_fail>
     a5c:	a94153f3 	ldp	x19, x20, [sp, #16]
     a60:	a9425bf5 	ldp	x21, x22, [sp, #32]
     a64:	f9401bf7 	ldr	x23, [sp, #48]
     a68:	a8d27bfd 	ldp	x29, x30, [sp], #288
     a6c:	d65f03c0 	ret

0000000000000a70 <func_abs_7(eve::arm_abi_v0::wide<unsigned int, eve::fixed<4l> >)>:
     a70:	a9ae7bfd 	stp	x29, x30, [sp, #-288]!
     a74:	910003fd 	mov	x29, sp
     a78:	a90153f3 	stp	x19, x20, [sp, #16]
     a7c:	a9025bf5 	stp	x21, x22, [sp, #32]
     a80:	f9001bf7 	str	x23, [sp, #48]
     a84:	3d8013e0 	str	q0, [sp, #64]
     a88:	90000000 	adrp	x0, 0 <__stack_chk_guard>
     a8c:	f9400000 	ldr	x0, [x0]
     a90:	f9400001 	ldr	x1, [x0]
     a94:	f9008fe1 	str	x1, [sp, #280]
     a98:	d2800001 	mov	x1, #0x0                   	// #0
     a9c:	3dc013e0 	ldr	q0, [sp, #64]
     aa0:	3d8037e0 	str	q0, [sp, #208]
     aa4:	90000000 	adrp	x0, 0 <func_abs_0(eve::arm_abi_v0::wide<float, eve::fixed<4l> >)>
     aa8:	91000013 	add	x19, x0, #0x0
     aac:	90000000 	adrp	x0, 0 <func_abs_0(eve::arm_abi_v0::wide<float, eve::fixed<4l> >)>
     ab0:	91000000 	add	x0, x0, #0x0
     ab4:	f90047e0 	str	x0, [sp, #136]
     ab8:	f94047e0 	ldr	x0, [sp, #136]
     abc:	910403e1 	add	x1, sp, #0x100
     ac0:	39400002 	ldrb	w2, [x0]
     ac4:	2a0303e0 	mov	w0, w3
     ac8:	94000000 	bl	0 <func_abs_0(eve::arm_abi_v0::wide<float, eve::fixed<4l> >)>
     acc:	14000002 	b	ad4 <func_abs_7(eve::arm_abi_v0::wide<unsigned int, eve::fixed<4l> >)+0x64>
     ad0:	94000000 	bl	0 <std::terminate()>
     ad4:	f9004bf3 	str	x19, [sp, #144]
     ad8:	390163f7 	strb	w23, [sp, #88]
     adc:	3dc037e0 	ldr	q0, [sp, #208]
     ae0:	3d803be0 	str	q0, [sp, #224]
     ae4:	52800020 	mov	w0, #0x1                   	// #1
     ae8:	3901f7e0 	strb	w0, [sp, #125]
     aec:	f9404be0 	ldr	x0, [sp, #144]
     af0:	f9004fe0 	str	x0, [sp, #152]
     af4:	390183f6 	strb	w22, [sp, #96]
     af8:	9101e3e0 	add	x0, sp, #0x78
     afc:	f90053e0 	str	x0, [sp, #160]
     b00:	3dc03be0 	ldr	q0, [sp, #224]
     b04:	3d803fe0 	str	q0, [sp, #240]
     b08:	52800020 	mov	w0, #0x1                   	// #1
     b0c:	3901fbe0 	strb	w0, [sp, #126]
     b10:	52800020 	mov	w0, #0x1                   	// #1
     b14:	3901ffe0 	strb	w0, [sp, #127]
     b18:	f9404fe0 	ldr	x0, [sp, #152]
     b1c:	f90057e0 	str	x0, [sp, #168]
     b20:	3901a3f5 	strb	w21, [sp, #104]
     b24:	f94053e0 	ldr	x0, [sp, #160]
     b28:	f9005be0 	str	x0, [sp, #176]
     b2c:	3dc03fe0 	ldr	q0, [sp, #240]
     b30:	3d8043e0 	str	q0, [sp, #256]
     b34:	52800020 	mov	w0, #0x1                   	// #1
     b38:	390203e0 	strb	w0, [sp, #128]
     b3c:	52800020 	mov	w0, #0x1                   	// #1
     b40:	390207e0 	strb	w0, [sp, #129]
     b44:	39020bff 	strb	wzr, [sp, #130]
     b48:	39020fff 	strb	wzr, [sp, #131]
     b4c:	3901c3f4 	strb	w20, [sp, #112]
     b50:	f9405be0 	ldr	x0, [sp, #176]
     b54:	f9005fe0 	str	x0, [sp, #184]
     b58:	f9405fe0 	ldr	x0, [sp, #184]
     b5c:	f90063e0 	str	x0, [sp, #192]
     b60:	910403e0 	add	x0, sp, #0x100
     b64:	f90067e0 	str	x0, [sp, #200]
     b68:	52800080 	mov	w0, #0x4                   	// #4
     b6c:	72a42800 	movk	w0, #0x2140, lsl #16
     b70:	b90087e0 	str	w0, [sp, #132]
     b74:	f94067e0 	ldr	x0, [sp, #200]
     b78:	3dc00000 	ldr	q0, [x0]
     b7c:	d503201f 	nop
     b80:	d503201f 	nop
     b84:	d503201f 	nop
     b88:	d503201f 	nop
     b8c:	d503201f 	nop
     b90:	90000000 	adrp	x0, 0 <__stack_chk_guard>
     b94:	f9400000 	ldr	x0, [x0]
     b98:	f9408fe2 	ldr	x2, [sp, #280]
     b9c:	f9400001 	ldr	x1, [x0]
     ba0:	eb010042 	subs	x2, x2, x1
     ba4:	d2800001 	mov	x1, #0x0                   	// #0
     ba8:	54000040 	b.eq	bb0 <func_abs_7(eve::arm_abi_v0::wide<unsigned int, eve::fixed<4l> >)+0x140>  // b.none
     bac:	94000000 	bl	0 <__stack_chk_fail>
     bb0:	a94153f3 	ldp	x19, x20, [sp, #16]
     bb4:	a9425bf5 	ldp	x21, x22, [sp, #32]
     bb8:	f9401bf7 	ldr	x23, [sp, #48]
     bbc:	a8d27bfd 	ldp	x29, x30, [sp], #288
     bc0:	d65f03c0 	ret

0000000000000bc4 <func_abs_8(eve::arm_abi_v0::wide<unsigned short, eve::fixed<8l> >)>:
     bc4:	a9ae7bfd 	stp	x29, x30, [sp, #-288]!
     bc8:	910003fd 	mov	x29, sp
     bcc:	a90153f3 	stp	x19, x20, [sp, #16]
     bd0:	a9025bf5 	stp	x21, x22, [sp, #32]
     bd4:	f9001bf7 	str	x23, [sp, #48]
     bd8:	3d8013e0 	str	q0, [sp, #64]
     bdc:	90000000 	adrp	x0, 0 <__stack_chk_guard>
     be0:	f9400000 	ldr	x0, [x0]
     be4:	f9400001 	ldr	x1, [x0]
     be8:	f9008fe1 	str	x1, [sp, #280]
     bec:	d2800001 	mov	x1, #0x0                   	// #0
     bf0:	3dc013e0 	ldr	q0, [sp, #64]
     bf4:	3d8037e0 	str	q0, [sp, #208]
     bf8:	90000000 	adrp	x0, 0 <func_abs_0(eve::arm_abi_v0::wide<float, eve::fixed<4l> >)>
     bfc:	91000013 	add	x19, x0, #0x0
     c00:	90000000 	adrp	x0, 0 <func_abs_0(eve::arm_abi_v0::wide<float, eve::fixed<4l> >)>
     c04:	91000000 	add	x0, x0, #0x0
     c08:	f90047e0 	str	x0, [sp, #136]
     c0c:	f94047e0 	ldr	x0, [sp, #136]
     c10:	910403e1 	add	x1, sp, #0x100
     c14:	39400002 	ldrb	w2, [x0]
     c18:	2a0303e0 	mov	w0, w3
     c1c:	94000000 	bl	0 <func_abs_0(eve::arm_abi_v0::wide<float, eve::fixed<4l> >)>
     c20:	14000002 	b	c28 <func_abs_8(eve::arm_abi_v0::wide<unsigned short, eve::fixed<8l> >)+0x64>
     c24:	94000000 	bl	0 <std::terminate()>
     c28:	f9004bf3 	str	x19, [sp, #144]
     c2c:	390163f7 	strb	w23, [sp, #88]
     c30:	3dc037e0 	ldr	q0, [sp, #208]
     c34:	3d803be0 	str	q0, [sp, #224]
     c38:	52800020 	mov	w0, #0x1                   	// #1
     c3c:	3901f7e0 	strb	w0, [sp, #125]
     c40:	f9404be0 	ldr	x0, [sp, #144]
     c44:	f9004fe0 	str	x0, [sp, #152]
     c48:	390183f6 	strb	w22, [sp, #96]
     c4c:	9101e3e0 	add	x0, sp, #0x78
     c50:	f90053e0 	str	x0, [sp, #160]
     c54:	3dc03be0 	ldr	q0, [sp, #224]
     c58:	3d803fe0 	str	q0, [sp, #240]
     c5c:	52800020 	mov	w0, #0x1                   	// #1
     c60:	3901fbe0 	strb	w0, [sp, #126]
     c64:	52800020 	mov	w0, #0x1                   	// #1
     c68:	3901ffe0 	strb	w0, [sp, #127]
     c6c:	f9404fe0 	ldr	x0, [sp, #152]
     c70:	f90057e0 	str	x0, [sp, #168]
     c74:	3901a3f5 	strb	w21, [sp, #104]
     c78:	f94053e0 	ldr	x0, [sp, #160]
     c7c:	f9005be0 	str	x0, [sp, #176]
     c80:	3dc03fe0 	ldr	q0, [sp, #240]
     c84:	3d8043e0 	str	q0, [sp, #256]
     c88:	52800020 	mov	w0, #0x1                   	// #1
     c8c:	390203e0 	strb	w0, [sp, #128]
     c90:	52800020 	mov	w0, #0x1                   	// #1
     c94:	390207e0 	strb	w0, [sp, #129]
     c98:	39020bff 	strb	wzr, [sp, #130]
     c9c:	39020fff 	strb	wzr, [sp, #131]
     ca0:	3901c3f4 	strb	w20, [sp, #112]
     ca4:	f9405be0 	ldr	x0, [sp, #176]
     ca8:	f9005fe0 	str	x0, [sp, #184]
     cac:	f9405fe0 	ldr	x0, [sp, #184]
     cb0:	f90063e0 	str	x0, [sp, #192]
     cb4:	910403e0 	add	x0, sp, #0x100
     cb8:	f90067e0 	str	x0, [sp, #200]
     cbc:	52800100 	mov	w0, #0x8                   	// #8
     cc0:	72a42400 	movk	w0, #0x2120, lsl #16
     cc4:	b90087e0 	str	w0, [sp, #132]
     cc8:	f94067e0 	ldr	x0, [sp, #200]
     ccc:	3dc00000 	ldr	q0, [x0]
     cd0:	d503201f 	nop
     cd4:	d503201f 	nop
     cd8:	d503201f 	nop
     cdc:	d503201f 	nop
     ce0:	d503201f 	nop
     ce4:	90000000 	adrp	x0, 0 <__stack_chk_guard>
     ce8:	f9400000 	ldr	x0, [x0]
     cec:	f9408fe2 	ldr	x2, [sp, #280]
     cf0:	f9400001 	ldr	x1, [x0]
     cf4:	eb010042 	subs	x2, x2, x1
     cf8:	d2800001 	mov	x1, #0x0                   	// #0
     cfc:	54000040 	b.eq	d04 <func_abs_8(eve::arm_abi_v0::wide<unsigned short, eve::fixed<8l> >)+0x140>  // b.none
     d00:	94000000 	bl	0 <__stack_chk_fail>
     d04:	a94153f3 	ldp	x19, x20, [sp, #16]
     d08:	a9425bf5 	ldp	x21, x22, [sp, #32]
     d0c:	f9401bf7 	ldr	x23, [sp, #48]
     d10:	a8d27bfd 	ldp	x29, x30, [sp], #288
     d14:	d65f03c0 	ret

0000000000000d18 <func_abs_9(eve::arm_abi_v0::wide<unsigned char, eve::fixed<16l> >)>:
     d18:	a9ae7bfd 	stp	x29, x30, [sp, #-288]!
     d1c:	910003fd 	mov	x29, sp
     d20:	a90153f3 	stp	x19, x20, [sp, #16]
     d24:	a9025bf5 	stp	x21, x22, [sp, #32]
     d28:	f9001bf7 	str	x23, [sp, #48]
     d2c:	3d8013e0 	str	q0, [sp, #64]
     d30:	90000000 	adrp	x0, 0 <__stack_chk_guard>
     d34:	f9400000 	ldr	x0, [x0]
     d38:	f9400001 	ldr	x1, [x0]
     d3c:	f9008fe1 	str	x1, [sp, #280]
     d40:	d2800001 	mov	x1, #0x0                   	// #0
     d44:	3dc013e0 	ldr	q0, [sp, #64]
     d48:	3d8037e0 	str	q0, [sp, #208]
     d4c:	90000000 	adrp	x0, 0 <func_abs_0(eve::arm_abi_v0::wide<float, eve::fixed<4l> >)>
     d50:	91000013 	add	x19, x0, #0x0
     d54:	90000000 	adrp	x0, 0 <func_abs_0(eve::arm_abi_v0::wide<float, eve::fixed<4l> >)>
     d58:	91000000 	add	x0, x0, #0x0
     d5c:	f90047e0 	str	x0, [sp, #136]
     d60:	f94047e0 	ldr	x0, [sp, #136]
     d64:	910403e1 	add	x1, sp, #0x100
     d68:	39400002 	ldrb	w2, [x0]
     d6c:	2a0303e0 	mov	w0, w3
     d70:	94000000 	bl	0 <func_abs_0(eve::arm_abi_v0::wide<float, eve::fixed<4l> >)>
     d74:	14000002 	b	d7c <func_abs_9(eve::arm_abi_v0::wide<unsigned char, eve::fixed<16l> >)+0x64>
     d78:	94000000 	bl	0 <std::terminate()>
     d7c:	f9004bf3 	str	x19, [sp, #144]
     d80:	390163f7 	strb	w23, [sp, #88]
     d84:	3dc037e0 	ldr	q0, [sp, #208]
     d88:	3d803be0 	str	q0, [sp, #224]
     d8c:	52800020 	mov	w0, #0x1                   	// #1
     d90:	3901f7e0 	strb	w0, [sp, #125]
     d94:	f9404be0 	ldr	x0, [sp, #144]
     d98:	f9004fe0 	str	x0, [sp, #152]
     d9c:	390183f6 	strb	w22, [sp, #96]
     da0:	9101e3e0 	add	x0, sp, #0x78
     da4:	f90053e0 	str	x0, [sp, #160]
     da8:	3dc03be0 	ldr	q0, [sp, #224]
     dac:	3d803fe0 	str	q0, [sp, #240]
     db0:	52800020 	mov	w0, #0x1                   	// #1
     db4:	3901fbe0 	strb	w0, [sp, #126]
     db8:	52800020 	mov	w0, #0x1                   	// #1
     dbc:	3901ffe0 	strb	w0, [sp, #127]
     dc0:	f9404fe0 	ldr	x0, [sp, #152]
     dc4:	f90057e0 	str	x0, [sp, #168]
     dc8:	3901a3f5 	strb	w21, [sp, #104]
     dcc:	f94053e0 	ldr	x0, [sp, #160]
     dd0:	f9005be0 	str	x0, [sp, #176]
     dd4:	3dc03fe0 	ldr	q0, [sp, #240]
     dd8:	3d8043e0 	str	q0, [sp, #256]
     ddc:	52800020 	mov	w0, #0x1                   	// #1
     de0:	390203e0 	strb	w0, [sp, #128]
     de4:	52800020 	mov	w0, #0x1                   	// #1
     de8:	390207e0 	strb	w0, [sp, #129]
     dec:	39020bff 	strb	wzr, [sp, #130]
     df0:	39020fff 	strb	wzr, [sp, #131]
     df4:	3901c3f4 	strb	w20, [sp, #112]
     df8:	f9405be0 	ldr	x0, [sp, #176]
     dfc:	f9005fe0 	str	x0, [sp, #184]
     e00:	f9405fe0 	ldr	x0, [sp, #184]
     e04:	f90063e0 	str	x0, [sp, #192]
     e08:	910403e0 	add	x0, sp, #0x100
     e0c:	f90067e0 	str	x0, [sp, #200]
     e10:	52800200 	mov	w0, #0x10                  	// #16
     e14:	72a42200 	movk	w0, #0x2110, lsl #16
     e18:	b90087e0 	str	w0, [sp, #132]
     e1c:	f94067e0 	ldr	x0, [sp, #200]
     e20:	3dc00000 	ldr	q0, [x0]
     e24:	d503201f 	nop
     e28:	d503201f 	nop
     e2c:	d503201f 	nop
     e30:	d503201f 	nop
     e34:	d503201f 	nop
     e38:	90000000 	adrp	x0, 0 <__stack_chk_guard>
     e3c:	f9400000 	ldr	x0, [x0]
     e40:	f9408fe2 	ldr	x2, [sp, #280]
     e44:	f9400001 	ldr	x1, [x0]
     e48:	eb010042 	subs	x2, x2, x1
     e4c:	d2800001 	mov	x1, #0x0                   	// #0
     e50:	54000040 	b.eq	e58 <func_abs_9(eve::arm_abi_v0::wide<unsigned char, eve::fixed<16l> >)+0x140>  // b.none
     e54:	94000000 	bl	0 <__stack_chk_fail>
     e58:	a94153f3 	ldp	x19, x20, [sp, #16]
     e5c:	a9425bf5 	ldp	x21, x22, [sp, #32]
     e60:	f9401bf7 	ldr	x23, [sp, #48]
     e64:	a8d27bfd 	ldp	x29, x30, [sp], #288
     e68:	d65f03c0 	ret

0000000000000e6c <func_abs_10(eve::arm_abi_v0::wide<unsigned long, eve::fixed<2l> >)>:
     e6c:	a9ae7bfd 	stp	x29, x30, [sp, #-288]!
     e70:	910003fd 	mov	x29, sp
     e74:	a90153f3 	stp	x19, x20, [sp, #16]
     e78:	a9025bf5 	stp	x21, x22, [sp, #32]
     e7c:	f9001bf7 	str	x23, [sp, #48]
     e80:	3d8013e0 	str	q0, [sp, #64]
     e84:	90000000 	adrp	x0, 0 <__stack_chk_guard>
     e88:	f9400000 	ldr	x0, [x0]
     e8c:	f9400001 	ldr	x1, [x0]
     e90:	f9008fe1 	str	x1, [sp, #280]
     e94:	d2800001 	mov	x1, #0x0                   	// #0
     e98:	3dc013e0 	ldr	q0, [sp, #64]
     e9c:	3d8037e0 	str	q0, [sp, #208]
     ea0:	90000000 	adrp	x0, 0 <func_abs_0(eve::arm_abi_v0::wide<float, eve::fixed<4l> >)>
     ea4:	91000013 	add	x19, x0, #0x0
     ea8:	90000000 	adrp	x0, 0 <func_abs_0(eve::arm_abi_v0::wide<float, eve::fixed<4l> >)>
     eac:	91000000 	add	x0, x0, #0x0
     eb0:	f90047e0 	str	x0, [sp, #136]
     eb4:	f94047e0 	ldr	x0, [sp, #136]
     eb8:	910403e1 	add	x1, sp, #0x100
     ebc:	39400002 	ldrb	w2, [x0]
     ec0:	2a0303e0 	mov	w0, w3
     ec4:	94000000 	bl	0 <func_abs_0(eve::arm_abi_v0::wide<float, eve::fixed<4l> >)>
     ec8:	14000002 	b	ed0 <func_abs_10(eve::arm_abi_v0::wide<unsigned long, eve::fixed<2l> >)+0x64>
     ecc:	94000000 	bl	0 <std::terminate()>
     ed0:	f9004bf3 	str	x19, [sp, #144]
     ed4:	390163f7 	strb	w23, [sp, #88]
     ed8:	3dc037e0 	ldr	q0, [sp, #208]
     edc:	3d803be0 	str	q0, [sp, #224]
     ee0:	52800020 	mov	w0, #0x1                   	// #1
     ee4:	3901f7e0 	strb	w0, [sp, #125]
     ee8:	f9404be0 	ldr	x0, [sp, #144]
     eec:	f9004fe0 	str	x0, [sp, #152]
     ef0:	390183f6 	strb	w22, [sp, #96]
     ef4:	9101e3e0 	add	x0, sp, #0x78
     ef8:	f90053e0 	str	x0, [sp, #160]
     efc:	3dc03be0 	ldr	q0, [sp, #224]
     f00:	3d803fe0 	str	q0, [sp, #240]
     f04:	52800020 	mov	w0, #0x1                   	// #1
     f08:	3901fbe0 	strb	w0, [sp, #126]
     f0c:	52800020 	mov	w0, #0x1                   	// #1
     f10:	3901ffe0 	strb	w0, [sp, #127]
     f14:	f9404fe0 	ldr	x0, [sp, #152]
     f18:	f90057e0 	str	x0, [sp, #168]
     f1c:	3901a3f5 	strb	w21, [sp, #104]
     f20:	f94053e0 	ldr	x0, [sp, #160]
     f24:	f9005be0 	str	x0, [sp, #176]
     f28:	3dc03fe0 	ldr	q0, [sp, #240]
     f2c:	3d8043e0 	str	q0, [sp, #256]
     f30:	52800020 	mov	w0, #0x1                   	// #1
     f34:	390203e0 	strb	w0, [sp, #128]
     f38:	52800020 	mov	w0, #0x1                   	// #1
     f3c:	390207e0 	strb	w0, [sp, #129]
     f40:	39020bff 	strb	wzr, [sp, #130]
     f44:	39020fff 	strb	wzr, [sp, #131]
     f48:	3901c3f4 	strb	w20, [sp, #112]
     f4c:	f9405be0 	ldr	x0, [sp, #176]
     f50:	f9005fe0 	str	x0, [sp, #184]
     f54:	f9405fe0 	ldr	x0, [sp, #184]
     f58:	f90063e0 	str	x0, [sp, #192]
     f5c:	910403e0 	add	x0, sp, #0x100
     f60:	f90067e0 	str	x0, [sp, #200]
     f64:	52800040 	mov	w0, #0x2                   	// #2
     f68:	72a43000 	movk	w0, #0x2180, lsl #16
     f6c:	b90087e0 	str	w0, [sp, #132]
     f70:	f94067e0 	ldr	x0, [sp, #200]
     f74:	3dc00000 	ldr	q0, [x0]
     f78:	d503201f 	nop
     f7c:	d503201f 	nop
     f80:	d503201f 	nop
     f84:	d503201f 	nop
     f88:	d503201f 	nop
     f8c:	90000000 	adrp	x0, 0 <__stack_chk_guard>
     f90:	f9400000 	ldr	x0, [x0]
     f94:	f9408fe2 	ldr	x2, [sp, #280]
     f98:	f9400001 	ldr	x1, [x0]
     f9c:	eb010042 	subs	x2, x2, x1
     fa0:	d2800001 	mov	x1, #0x0                   	// #0
     fa4:	54000040 	b.eq	fac <func_abs_10(eve::arm_abi_v0::wide<unsigned long, eve::fixed<2l> >)+0x140>  // b.none
     fa8:	94000000 	bl	0 <__stack_chk_fail>
     fac:	a94153f3 	ldp	x19, x20, [sp, #16]
     fb0:	a9425bf5 	ldp	x21, x22, [sp, #32]
     fb4:	f9401bf7 	ldr	x23, [sp, #48]
     fb8:	a8d27bfd 	ldp	x29, x30, [sp], #288
     fbc:	d65f03c0 	ret

0000000000000fc0 <func_abs_11(eve::arm_abi_v0::wide<unsigned int, eve::fixed<4l> >)>:
     fc0:	a9ae7bfd 	stp	x29, x30, [sp, #-288]!
     fc4:	910003fd 	mov	x29, sp
     fc8:	a90153f3 	stp	x19, x20, [sp, #16]
     fcc:	a9025bf5 	stp	x21, x22, [sp, #32]
     fd0:	f9001bf7 	str	x23, [sp, #48]
     fd4:	3d8013e0 	str	q0, [sp, #64]
     fd8:	90000000 	adrp	x0, 0 <__stack_chk_guard>
     fdc:	f9400000 	ldr	x0, [x0]
     fe0:	f9400001 	ldr	x1, [x0]
     fe4:	f9008fe1 	str	x1, [sp, #280]
     fe8:	d2800001 	mov	x1, #0x0                   	// #0
     fec:	3dc013e0 	ldr	q0, [sp, #64]
     ff0:	3d8037e0 	str	q0, [sp, #208]
     ff4:	90000000 	adrp	x0, 0 <func_abs_0(eve::arm_abi_v0::wide<float, eve::fixed<4l> >)>
     ff8:	91000013 	add	x19, x0, #0x0
     ffc:	90000000 	adrp	x0, 0 <func_abs_0(eve::arm_abi_v0::wide<float, eve::fixed<4l> >)>
    1000:	91000000 	add	x0, x0, #0x0
    1004:	f90047e0 	str	x0, [sp, #136]
    1008:	f94047e0 	ldr	x0, [sp, #136]
    100c:	910403e1 	add	x1, sp, #0x100
    1010:	39400002 	ldrb	w2, [x0]
    1014:	2a0303e0 	mov	w0, w3
    1018:	94000000 	bl	0 <func_abs_0(eve::arm_abi_v0::wide<float, eve::fixed<4l> >)>
    101c:	14000002 	b	1024 <func_abs_11(eve::arm_abi_v0::wide<unsigned int, eve::fixed<4l> >)+0x64>
    1020:	94000000 	bl	0 <std::terminate()>
    1024:	f9004bf3 	str	x19, [sp, #144]
    1028:	390163f7 	strb	w23, [sp, #88]
    102c:	3dc037e0 	ldr	q0, [sp, #208]
    1030:	3d803be0 	str	q0, [sp, #224]
    1034:	52800020 	mov	w0, #0x1                   	// #1
    1038:	3901f7e0 	strb	w0, [sp, #125]
    103c:	f9404be0 	ldr	x0, [sp, #144]
    1040:	f9004fe0 	str	x0, [sp, #152]
    1044:	390183f6 	strb	w22, [sp, #96]
    1048:	9101e3e0 	add	x0, sp, #0x78
    104c:	f90053e0 	str	x0, [sp, #160]
    1050:	3dc03be0 	ldr	q0, [sp, #224]
    1054:	3d803fe0 	str	q0, [sp, #240]
    1058:	52800020 	mov	w0, #0x1                   	// #1
    105c:	3901fbe0 	strb	w0, [sp, #126]
    1060:	52800020 	mov	w0, #0x1                   	// #1
    1064:	3901ffe0 	strb	w0, [sp, #127]
    1068:	f9404fe0 	ldr	x0, [sp, #152]
    106c:	f90057e0 	str	x0, [sp, #168]
    1070:	3901a3f5 	strb	w21, [sp, #104]
    1074:	f94053e0 	ldr	x0, [sp, #160]
    1078:	f9005be0 	str	x0, [sp, #176]
    107c:	3dc03fe0 	ldr	q0, [sp, #240]
    1080:	3d8043e0 	str	q0, [sp, #256]
    1084:	52800020 	mov	w0, #0x1                   	// #1
    1088:	390203e0 	strb	w0, [sp, #128]
    108c:	52800020 	mov	w0, #0x1                   	// #1
    1090:	390207e0 	strb	w0, [sp, #129]
    1094:	39020bff 	strb	wzr, [sp, #130]
    1098:	39020fff 	strb	wzr, [sp, #131]
    109c:	3901c3f4 	strb	w20, [sp, #112]
    10a0:	f9405be0 	ldr	x0, [sp, #176]
    10a4:	f9005fe0 	str	x0, [sp, #184]
    10a8:	f9405fe0 	ldr	x0, [sp, #184]
    10ac:	f90063e0 	str	x0, [sp, #192]
    10b0:	910403e0 	add	x0, sp, #0x100
    10b4:	f90067e0 	str	x0, [sp, #200]
    10b8:	52800080 	mov	w0, #0x4                   	// #4
    10bc:	72a42800 	movk	w0, #0x2140, lsl #16
    10c0:	b90087e0 	str	w0, [sp, #132]
    10c4:	f94067e0 	ldr	x0, [sp, #200]
    10c8:	3dc00000 	ldr	q0, [x0]
    10cc:	d503201f 	nop
    10d0:	d503201f 	nop
    10d4:	d503201f 	nop
    10d8:	d503201f 	nop
    10dc:	d503201f 	nop
    10e0:	90000000 	adrp	x0, 0 <__stack_chk_guard>
    10e4:	f9400000 	ldr	x0, [x0]
    10e8:	f9408fe2 	ldr	x2, [sp, #280]
    10ec:	f9400001 	ldr	x1, [x0]
    10f0:	eb010042 	subs	x2, x2, x1
    10f4:	d2800001 	mov	x1, #0x0                   	// #0
    10f8:	54000040 	b.eq	1100 <func_abs_11(eve::arm_abi_v0::wide<unsigned int, eve::fixed<4l> >)+0x140>  // b.none
    10fc:	94000000 	bl	0 <__stack_chk_fail>
    1100:	a94153f3 	ldp	x19, x20, [sp, #16]
    1104:	a9425bf5 	ldp	x21, x22, [sp, #32]
    1108:	f9401bf7 	ldr	x23, [sp, #48]
    110c:	a8d27bfd 	ldp	x29, x30, [sp], #288
    1110:	d65f03c0 	ret

0000000000001114 <func_abs_12(eve::arm_abi_v0::wide<unsigned short, eve::fixed<8l> >)>:
    1114:	a9ae7bfd 	stp	x29, x30, [sp, #-288]!
    1118:	910003fd 	mov	x29, sp
    111c:	a90153f3 	stp	x19, x20, [sp, #16]
    1120:	a9025bf5 	stp	x21, x22, [sp, #32]
    1124:	f9001bf7 	str	x23, [sp, #48]
    1128:	3d8013e0 	str	q0, [sp, #64]
    112c:	90000000 	adrp	x0, 0 <__stack_chk_guard>
    1130:	f9400000 	ldr	x0, [x0]
    1134:	f9400001 	ldr	x1, [x0]
    1138:	f9008fe1 	str	x1, [sp, #280]
    113c:	d2800001 	mov	x1, #0x0                   	// #0
    1140:	3dc013e0 	ldr	q0, [sp, #64]
    1144:	3d8037e0 	str	q0, [sp, #208]
    1148:	90000000 	adrp	x0, 0 <func_abs_0(eve::arm_abi_v0::wide<float, eve::fixed<4l> >)>
    114c:	91000013 	add	x19, x0, #0x0
    1150:	90000000 	adrp	x0, 0 <func_abs_0(eve::arm_abi_v0::wide<float, eve::fixed<4l> >)>
    1154:	91000000 	add	x0, x0, #0x0
    1158:	f90047e0 	str	x0, [sp, #136]
    115c:	f94047e0 	ldr	x0, [sp, #136]
    1160:	910403e1 	add	x1, sp, #0x100
    1164:	39400002 	ldrb	w2, [x0]
    1168:	2a0303e0 	mov	w0, w3
    116c:	94000000 	bl	0 <func_abs_0(eve::arm_abi_v0::wide<float, eve::fixed<4l> >)>
    1170:	14000002 	b	1178 <func_abs_12(eve::arm_abi_v0::wide<unsigned short, eve::fixed<8l> >)+0x64>
    1174:	94000000 	bl	0 <std::terminate()>
    1178:	f9004bf3 	str	x19, [sp, #144]
    117c:	390163f7 	strb	w23, [sp, #88]
    1180:	3dc037e0 	ldr	q0, [sp, #208]
    1184:	3d803be0 	str	q0, [sp, #224]
    1188:	52800020 	mov	w0, #0x1                   	// #1
    118c:	3901f7e0 	strb	w0, [sp, #125]
    1190:	f9404be0 	ldr	x0, [sp, #144]
    1194:	f9004fe0 	str	x0, [sp, #152]
    1198:	390183f6 	strb	w22, [sp, #96]
    119c:	9101e3e0 	add	x0, sp, #0x78
    11a0:	f90053e0 	str	x0, [sp, #160]
    11a4:	3dc03be0 	ldr	q0, [sp, #224]
    11a8:	3d803fe0 	str	q0, [sp, #240]
    11ac:	52800020 	mov	w0, #0x1                   	// #1
    11b0:	3901fbe0 	strb	w0, [sp, #126]
    11b4:	52800020 	mov	w0, #0x1                   	// #1
    11b8:	3901ffe0 	strb	w0, [sp, #127]
    11bc:	f9404fe0 	ldr	x0, [sp, #152]
    11c0:	f90057e0 	str	x0, [sp, #168]
    11c4:	3901a3f5 	strb	w21, [sp, #104]
    11c8:	f94053e0 	ldr	x0, [sp, #160]
    11cc:	f9005be0 	str	x0, [sp, #176]
    11d0:	3dc03fe0 	ldr	q0, [sp, #240]
    11d4:	3d8043e0 	str	q0, [sp, #256]
    11d8:	52800020 	mov	w0, #0x1                   	// #1
    11dc:	390203e0 	strb	w0, [sp, #128]
    11e0:	52800020 	mov	w0, #0x1                   	// #1
    11e4:	390207e0 	strb	w0, [sp, #129]
    11e8:	39020bff 	strb	wzr, [sp, #130]
    11ec:	39020fff 	strb	wzr, [sp, #131]
    11f0:	3901c3f4 	strb	w20, [sp, #112]
    11f4:	f9405be0 	ldr	x0, [sp, #176]
    11f8:	f9005fe0 	str	x0, [sp, #184]
    11fc:	f9405fe0 	ldr	x0, [sp, #184]
    1200:	f90063e0 	str	x0, [sp, #192]
    1204:	910403e0 	add	x0, sp, #0x100
    1208:	f90067e0 	str	x0, [sp, #200]
    120c:	52800100 	mov	w0, #0x8                   	// #8
    1210:	72a42400 	movk	w0, #0x2120, lsl #16
    1214:	b90087e0 	str	w0, [sp, #132]
    1218:	f94067e0 	ldr	x0, [sp, #200]
    121c:	3dc00000 	ldr	q0, [x0]
    1220:	d503201f 	nop
    1224:	d503201f 	nop
    1228:	d503201f 	nop
    122c:	d503201f 	nop
    1230:	d503201f 	nop
    1234:	90000000 	adrp	x0, 0 <__stack_chk_guard>
    1238:	f9400000 	ldr	x0, [x0]
    123c:	f9408fe2 	ldr	x2, [sp, #280]
    1240:	f9400001 	ldr	x1, [x0]
    1244:	eb010042 	subs	x2, x2, x1
    1248:	d2800001 	mov	x1, #0x0                   	// #0
    124c:	54000040 	b.eq	1254 <func_abs_12(eve::arm_abi_v0::wide<unsigned short, eve::fixed<8l> >)+0x140>  // b.none
    1250:	94000000 	bl	0 <__stack_chk_fail>
    1254:	a94153f3 	ldp	x19, x20, [sp, #16]
    1258:	a9425bf5 	ldp	x21, x22, [sp, #32]
    125c:	f9401bf7 	ldr	x23, [sp, #48]
    1260:	a8d27bfd 	ldp	x29, x30, [sp], #288
    1264:	d65f03c0 	ret

0000000000001268 <func_abs_13(eve::arm_abi_v0::wide<unsigned char, eve::fixed<16l> >)>:
    1268:	a9ae7bfd 	stp	x29, x30, [sp, #-288]!
    126c:	910003fd 	mov	x29, sp
    1270:	a90153f3 	stp	x19, x20, [sp, #16]
    1274:	a9025bf5 	stp	x21, x22, [sp, #32]
    1278:	f9001bf7 	str	x23, [sp, #48]
    127c:	3d8013e0 	str	q0, [sp, #64]
    1280:	90000000 	adrp	x0, 0 <__stack_chk_guard>
    1284:	f9400000 	ldr	x0, [x0]
    1288:	f9400001 	ldr	x1, [x0]
    128c:	f9008fe1 	str	x1, [sp, #280]
    1290:	d2800001 	mov	x1, #0x0                   	// #0
    1294:	3dc013e0 	ldr	q0, [sp, #64]
    1298:	3d8037e0 	str	q0, [sp, #208]
    129c:	90000000 	adrp	x0, 0 <func_abs_0(eve::arm_abi_v0::wide<float, eve::fixed<4l> >)>
    12a0:	91000013 	add	x19, x0, #0x0
    12a4:	90000000 	adrp	x0, 0 <func_abs_0(eve::arm_abi_v0::wide<float, eve::fixed<4l> >)>
    12a8:	91000000 	add	x0, x0, #0x0
    12ac:	f90047e0 	str	x0, [sp, #136]
    12b0:	f94047e0 	ldr	x0, [sp, #136]
    12b4:	910403e1 	add	x1, sp, #0x100
    12b8:	39400002 	ldrb	w2, [x0]
    12bc:	2a0303e0 	mov	w0, w3
    12c0:	94000000 	bl	0 <func_abs_0(eve::arm_abi_v0::wide<float, eve::fixed<4l> >)>
    12c4:	14000002 	b	12cc <func_abs_13(eve::arm_abi_v0::wide<unsigned char, eve::fixed<16l> >)+0x64>
    12c8:	94000000 	bl	0 <std::terminate()>
    12cc:	f9004bf3 	str	x19, [sp, #144]
    12d0:	390163f7 	strb	w23, [sp, #88]
    12d4:	3dc037e0 	ldr	q0, [sp, #208]
    12d8:	3d803be0 	str	q0, [sp, #224]
    12dc:	52800020 	mov	w0, #0x1                   	// #1
    12e0:	3901f7e0 	strb	w0, [sp, #125]
    12e4:	f9404be0 	ldr	x0, [sp, #144]
    12e8:	f9004fe0 	str	x0, [sp, #152]
    12ec:	390183f6 	strb	w22, [sp, #96]
    12f0:	9101e3e0 	add	x0, sp, #0x78
    12f4:	f90053e0 	str	x0, [sp, #160]
    12f8:	3dc03be0 	ldr	q0, [sp, #224]
    12fc:	3d803fe0 	str	q0, [sp, #240]
    1300:	52800020 	mov	w0, #0x1                   	// #1
    1304:	3901fbe0 	strb	w0, [sp, #126]
    1308:	52800020 	mov	w0, #0x1                   	// #1
    130c:	3901ffe0 	strb	w0, [sp, #127]
    1310:	f9404fe0 	ldr	x0, [sp, #152]
    1314:	f90057e0 	str	x0, [sp, #168]
    1318:	3901a3f5 	strb	w21, [sp, #104]
    131c:	f94053e0 	ldr	x0, [sp, #160]
    1320:	f9005be0 	str	x0, [sp, #176]
    1324:	3dc03fe0 	ldr	q0, [sp, #240]
    1328:	3d8043e0 	str	q0, [sp, #256]
    132c:	52800020 	mov	w0, #0x1                   	// #1
    1330:	390203e0 	strb	w0, [sp, #128]
    1334:	52800020 	mov	w0, #0x1                   	// #1
    1338:	390207e0 	strb	w0, [sp, #129]
    133c:	39020bff 	strb	wzr, [sp, #130]
    1340:	39020fff 	strb	wzr, [sp, #131]
    1344:	3901c3f4 	strb	w20, [sp, #112]
    1348:	f9405be0 	ldr	x0, [sp, #176]
    134c:	f9005fe0 	str	x0, [sp, #184]
    1350:	f9405fe0 	ldr	x0, [sp, #184]
    1354:	f90063e0 	str	x0, [sp, #192]
    1358:	910403e0 	add	x0, sp, #0x100
    135c:	f90067e0 	str	x0, [sp, #200]
    1360:	52800200 	mov	w0, #0x10                  	// #16
    1364:	72a42200 	movk	w0, #0x2110, lsl #16
    1368:	b90087e0 	str	w0, [sp, #132]
    136c:	f94067e0 	ldr	x0, [sp, #200]
    1370:	3dc00000 	ldr	q0, [x0]
    1374:	d503201f 	nop
    1378:	d503201f 	nop
    137c:	d503201f 	nop
    1380:	d503201f 	nop
    1384:	d503201f 	nop
    1388:	90000000 	adrp	x0, 0 <__stack_chk_guard>
    138c:	f9400000 	ldr	x0, [x0]
    1390:	f9408fe2 	ldr	x2, [sp, #280]
    1394:	f9400001 	ldr	x1, [x0]
    1398:	eb010042 	subs	x2, x2, x1
    139c:	d2800001 	mov	x1, #0x0                   	// #0
    13a0:	54000040 	b.eq	13a8 <func_abs_13(eve::arm_abi_v0::wide<unsigned char, eve::fixed<16l> >)+0x140>  // b.none
    13a4:	94000000 	bl	0 <__stack_chk_fail>
    13a8:	a94153f3 	ldp	x19, x20, [sp, #16]
    13ac:	a9425bf5 	ldp	x21, x22, [sp, #32]
    13b0:	f9401bf7 	ldr	x23, [sp, #48]
    13b4:	a8d27bfd 	ldp	x29, x30, [sp], #288
    13b8:	d65f03c0 	ret

00000000000013bc <__static_initialization_and_destruction_0(int, int)>:
    13bc:	a9be7bfd 	stp	x29, x30, [sp, #-32]!
    13c0:	910003fd 	mov	x29, sp
    13c4:	b9001fe0 	str	w0, [sp, #28]
    13c8:	b9001be1 	str	w1, [sp, #24]
    13cc:	b9401fe0 	ldr	w0, [sp, #28]
    13d0:	7100041f 	cmp	w0, #0x1
    13d4:	540001e1 	b.ne	1410 <__static_initialization_and_destruction_0(int, int)+0x54>  // b.any
    13d8:	b9401be1 	ldr	w1, [sp, #24]
    13dc:	529fffe0 	mov	w0, #0xffff                	// #65535
    13e0:	6b00003f 	cmp	w1, w0
    13e4:	54000161 	b.ne	1410 <__static_initialization_and_destruction_0(int, int)+0x54>  // b.any
    13e8:	90000000 	adrp	x0, 0 <func_abs_0(eve::arm_abi_v0::wide<float, eve::fixed<4l> >)>
    13ec:	91000000 	add	x0, x0, #0x0
    13f0:	94000000 	bl	0 <std::ios_base::Init::Init()>
    13f4:	90000000 	adrp	x0, 0 <__dso_handle>
    13f8:	91000002 	add	x2, x0, #0x0
    13fc:	90000000 	adrp	x0, 0 <func_abs_0(eve::arm_abi_v0::wide<float, eve::fixed<4l> >)>
    1400:	91000001 	add	x1, x0, #0x0
    1404:	90000000 	adrp	x0, 0 <std::ios_base::Init::~Init()>
    1408:	f9400000 	ldr	x0, [x0]
    140c:	94000000 	bl	0 <__cxa_atexit>
    1410:	d503201f 	nop
    1414:	a8c27bfd 	ldp	x29, x30, [sp], #32
    1418:	d65f03c0 	ret

000000000000141c <_GLOBAL__sub_I__Z10func_abs_0N3eve10arm_abi_v04wideIfNS_5fixedILl4EEEEE>:
    141c:	a9bf7bfd 	stp	x29, x30, [sp, #-16]!
    1420:	910003fd 	mov	x29, sp
    1424:	529fffe1 	mov	w1, #0xffff                	// #65535
    1428:	52800020 	mov	w0, #0x1                   	// #1
    142c:	97ffffe4 	bl	13bc <__static_initialization_and_destruction_0(int, int)>
    1430:	a8c17bfd 	ldp	x29, x30, [sp], #16
    1434:	d65f03c0 	ret

Disassembly of section .text._ZN3eve2asIdEC1Ev:

0000000000000000 <eve::as<double>::as()>:
   0:	d10043ff 	sub	sp, sp, #0x10
   4:	f90007e0 	str	x0, [sp, #8]
   8:	d503201f 	nop
   c:	910043ff 	add	sp, sp, #0x10
  10:	d65f03c0 	ret

Disassembly of section .text._ZZN4kumi9fold_leftIZNK3eve14decorated_withINS1_7optionsIN3rbr8settingsIJEEEEEJNS1_18conditional_optionENS1_16saturated_optionEEE7optionsEvEUlT_RKT0_E_NS_5tupleIJS8_S9_EEES7_EEDaSB_OSC_T1_ENKUlSt16integer_sequenceImJXspT_EEEE_clIJLm0ELm1EEEEDaSL_:

0000000000000000 <_ZZN4kumi9fold_leftIZNK3eve14decorated_withINS1_7optionsIN3rbr8settingsIJEEEEEJNS1_18conditional_optionENS1_16saturated_optionEEE7optionsEvEUlT_RKT0_E_NS_5tupleIJS8_S9_EEES7_EEDaSB_OSC_T1_ENKUlSt16integer_sequenceImJXspT_EEEE_clIJLm0ELm1EEEEDaSL_>:
   0:	a9b77bfd 	stp	x29, x30, [sp, #-144]!
   4:	910003fd 	mov	x29, sp
   8:	f9000bf3 	str	x19, [sp, #16]
   c:	f90017e0 	str	x0, [sp, #40]
  10:	390083e1 	strb	w1, [sp, #32]
  14:	90000000 	adrp	x0, 0 <__stack_chk_guard>
  18:	f9400000 	ldr	x0, [x0]
  1c:	f9400001 	ldr	x1, [x0]
  20:	f90047e1 	str	x1, [sp, #136]
  24:	d2800001 	mov	x1, #0x0                   	// #0
  28:	f94017e0 	ldr	x0, [sp, #40]
  2c:	f9400400 	ldr	x0, [x0, #8]
  30:	f90033e0 	str	x0, [sp, #96]
  34:	f94033e0 	ldr	x0, [sp, #96]
  38:	f90037e0 	str	x0, [sp, #104]
  3c:	3901e3e3 	strb	w3, [sp, #120]
  40:	f94037e0 	ldr	x0, [sp, #104]
  44:	f9003be0 	str	x0, [sp, #112]
  48:	d503201f 	nop
  4c:	d503201f 	nop
  50:	f94017e0 	ldr	x0, [sp, #40]
  54:	f9400400 	ldr	x0, [x0, #8]
  58:	f90027e0 	str	x0, [sp, #72]
  5c:	f94027e0 	ldr	x0, [sp, #72]
  60:	f9002be0 	str	x0, [sp, #80]
  64:	3901e3e2 	strb	w2, [sp, #120]
  68:	f9402be0 	ldr	x0, [sp, #80]
  6c:	f9002fe0 	str	x0, [sp, #88]
  70:	d503201f 	nop
  74:	d503201f 	nop
  78:	f94017e0 	ldr	x0, [sp, #40]
  7c:	f9400800 	ldr	x0, [x0, #16]
  80:	f90043e0 	str	x0, [sp, #128]
  84:	9101e3e1 	add	x1, sp, #0x78
  88:	9100e3e0 	add	x0, sp, #0x38
  8c:	94000000 	bl	0 <_ZZN4kumi9fold_leftIZNK3eve14decorated_withINS1_7optionsIN3rbr8settingsIJEEEEEJNS1_18conditional_optionENS1_16saturated_optionEEE7optionsEvEUlT_RKT0_E_NS_5tupleIJS8_S9_EEES7_EEDaSB_OSC_T1_ENKUlSt16integer_sequenceImJXspT_EEEE_clIJLm0ELm1EEEEDaSL_>
  90:	910103e1 	add	x1, sp, #0x40
  94:	9100c3e0 	add	x0, sp, #0x30
  98:	94000000 	bl	0 <_ZZN4kumi9fold_leftIZNK3eve14decorated_withINS1_7optionsIN3rbr8settingsIJEEEEEJNS1_18conditional_optionENS1_16saturated_optionEEE7optionsEvEUlT_RKT0_E_NS_5tupleIJS8_S9_EEES7_EEDaSB_OSC_T1_ENKUlSt16integer_sequenceImJXspT_EEEE_clIJLm0ELm1EEEEDaSL_>
  9c:	90000000 	adrp	x0, 0 <__stack_chk_guard>
  a0:	f9400000 	ldr	x0, [x0]
  a4:	f94047e2 	ldr	x2, [sp, #136]
  a8:	f9400001 	ldr	x1, [x0]
  ac:	eb010042 	subs	x2, x2, x1
  b0:	d2800001 	mov	x1, #0x0                   	// #0
  b4:	54000040 	b.eq	bc <_ZZN4kumi9fold_leftIZNK3eve14decorated_withINS1_7optionsIN3rbr8settingsIJEEEEEJNS1_18conditional_optionENS1_16saturated_optionEEE7optionsEvEUlT_RKT0_E_NS_5tupleIJS8_S9_EEES7_EEDaSB_OSC_T1_ENKUlSt16integer_sequenceImJXspT_EEEE_clIJLm0ELm1EEEEDaSL_+0xbc>  // b.none
  b8:	94000000 	bl	0 <__stack_chk_fail>
  bc:	2a1303e0 	mov	w0, w19
  c0:	f9400bf3 	ldr	x19, [sp, #16]
  c4:	a8c97bfd 	ldp	x29, x30, [sp], #144
  c8:	d65f03c0 	ret

Disassembly of section .text._ZZNK3eve14decorated_withINS_7optionsIN3rbr8settingsIJEEEEEJNS_18conditional_optionENS_16saturated_optionEEE7optionsEvENKUlT_RKT0_E_clIS5_S7_EEDaS9_SC_:

0000000000000000 <auto eve::decorated_with<eve::options<rbr::settings<> >, eve::conditional_option, eve::saturated_option>::options() const::{lambda(auto:1, auto:2 const&)#1}::operator()<eve::options<rbr::settings<> >, eve::saturated_option>(eve::options<rbr::settings<> >, eve::saturated_option const&) const>:
   0:	d100c3ff 	sub	sp, sp, #0x30
   4:	f9000fe0 	str	x0, [sp, #24]
   8:	390043e1 	strb	w1, [sp, #16]
   c:	f90007e2 	str	x2, [sp, #8]
  10:	f94007e0 	ldr	x0, [sp, #8]
  14:	f90017e0 	str	x0, [sp, #40]
  18:	d503201f 	nop
  1c:	d503201f 	nop
  20:	2a0303e0 	mov	w0, w3
  24:	9100c3ff 	add	sp, sp, #0x30
  28:	d65f03c0 	ret

Disassembly of section .text._ZN4kumi1_rsIRN3eve7optionsIN3rbr8settingsIJEEEEEEEDcONS0_8foldableIZNKS2_14decorated_withIS7_JNS2_18conditional_optionENS2_16saturated_optionEEE7optionsEvEUlT_RKT0_E_SC_EEONS9_ISI_SE_EE:

0000000000000000 <decltype(auto) kumi::_::operator>><eve::options<rbr::settings<> >&>(kumi::_::foldable<eve::decorated_with<eve::options<rbr::settings<> >, eve::conditional_option, eve::saturated_option>::options() const::{lambda(auto:1, auto:2 const&)#1}, eve::saturated_option>&&, kumi::_::foldable<eve::decorated_with<eve::options<rbr::settings<> >, eve::conditional_option, eve::saturated_option>::options() const::{lambda(auto:1, auto:2 const&)#1}, eve::options<rbr::settings<> >&>&&)>:
   0:	a9bd7bfd 	stp	x29, x30, [sp, #-48]!
   4:	910003fd 	mov	x29, sp
   8:	f9000bf3 	str	x19, [sp, #16]
   c:	f90017e0 	str	x0, [sp, #40]
  10:	f90013e1 	str	x1, [sp, #32]
  14:	f94017e3 	ldr	x3, [sp, #40]
  18:	f94013e0 	ldr	x0, [sp, #32]
  1c:	f9400400 	ldr	x0, [x0, #8]
  20:	f94017e1 	ldr	x1, [sp, #40]
  24:	91000421 	add	x1, x1, #0x1
  28:	aa0103e2 	mov	x2, x1
  2c:	39400001 	ldrb	w1, [x0]
  30:	aa0303e0 	mov	x0, x3
  34:	94000000 	bl	0 <decltype(auto) kumi::_::operator>><eve::options<rbr::settings<> >&>(kumi::_::foldable<eve::decorated_with<eve::options<rbr::settings<> >, eve::conditional_option, eve::saturated_option>::options() const::{lambda(auto:1, auto:2 const&)#1}, eve::saturated_option>&&, kumi::_::foldable<eve::decorated_with<eve::options<rbr::settings<> >, eve::conditional_option, eve::saturated_option>::options() const::{lambda(auto:1, auto:2 const&)#1}, eve::options<rbr::settings<> >&>&&)>
  38:	2a1303e0 	mov	w0, w19
  3c:	f9400bf3 	ldr	x19, [sp, #16]
  40:	a8c37bfd 	ldp	x29, x30, [sp], #48
  44:	d65f03c0 	ret

Disassembly of section .text._ZZNK3eve14decorated_withINS_7optionsIN3rbr8settingsIJEEEEEJNS_18conditional_optionENS_16saturated_optionEEE7optionsEvENKUlT_RKT0_E_clIS5_S6_EEDaS9_SC_:

0000000000000000 <auto eve::decorated_with<eve::options<rbr::settings<> >, eve::conditional_option, eve::saturated_option>::options() const::{lambda(auto:1, auto:2 const&)#1}::operator()<eve::options<rbr::settings<> >, eve::conditional_option>(eve::options<rbr::settings<> >, eve::conditional_option const&) const>:
   0:	a9ba7bfd 	stp	x29, x30, [sp, #-96]!
   4:	910003fd 	mov	x29, sp
   8:	a90153f3 	stp	x19, x20, [sp, #16]
   c:	f9001fe0 	str	x0, [sp, #56]
  10:	3900c3e1 	strb	w1, [sp, #48]
  14:	f90017e2 	str	x2, [sp, #40]
  18:	90000000 	adrp	x0, 0 <__stack_chk_guard>
  1c:	f9400000 	ldr	x0, [x0]
  20:	f9400001 	ldr	x1, [x0]
  24:	f9002fe1 	str	x1, [sp, #88]
  28:	d2800001 	mov	x1, #0x0                   	// #0
  2c:	f94017e0 	ldr	x0, [sp, #40]
  30:	f9002be0 	str	x0, [sp, #80]
  34:	9100c3f3 	add	x19, sp, #0x30
  38:	90000000 	adrp	x0, 0 <auto eve::decorated_with<eve::options<rbr::settings<> >, eve::conditional_option, eve::saturated_option>::options() const::{lambda(auto:1, auto:2 const&)#1}::operator()<eve::options<rbr::settings<> >, eve::conditional_option>(eve::options<rbr::settings<> >, eve::conditional_option const&) const>
  3c:	91000001 	add	x1, x0, #0x0
  40:	90000000 	adrp	x0, 0 <auto eve::decorated_with<eve::options<rbr::settings<> >, eve::conditional_option, eve::saturated_option>::options() const::{lambda(auto:1, auto:2 const&)#1}::operator()<eve::options<rbr::settings<> >, eve::conditional_option>(eve::options<rbr::settings<> >, eve::conditional_option const&) const>
  44:	91000000 	add	x0, x0, #0x0
  48:	94000000 	bl	0 <auto eve::decorated_with<eve::options<rbr::settings<> >, eve::conditional_option, eve::saturated_option>::options() const::{lambda(auto:1, auto:2 const&)#1}::operator()<eve::options<rbr::settings<> >, eve::conditional_option>(eve::options<rbr::settings<> >, eve::conditional_option const&) const>
  4c:	910123e0 	add	x0, sp, #0x48
  50:	910103e1 	add	x1, sp, #0x40
  54:	94000000 	bl	0 <auto eve::decorated_with<eve::options<rbr::settings<> >, eve::conditional_option, eve::saturated_option>::options() const::{lambda(auto:1, auto:2 const&)#1}::operator()<eve::options<rbr::settings<> >, eve::conditional_option>(eve::options<rbr::settings<> >, eve::conditional_option const&) const>
  58:	d503201f 	nop
  5c:	910123e0 	add	x0, sp, #0x48
  60:	aa0003e1 	mov	x1, x0
  64:	aa1303e0 	mov	x0, x19
  68:	94000000 	bl	0 <auto eve::decorated_with<eve::options<rbr::settings<> >, eve::conditional_option, eve::saturated_option>::options() const::{lambda(auto:1, auto:2 const&)#1}::operator()<eve::options<rbr::settings<> >, eve::conditional_option>(eve::options<rbr::settings<> >, eve::conditional_option const&) const>
  6c:	d503201f 	nop
  70:	d503201f 	nop
  74:	d503201f 	nop
  78:	90000000 	adrp	x0, 0 <__stack_chk_guard>
  7c:	f9400000 	ldr	x0, [x0]
  80:	f9402fe2 	ldr	x2, [sp, #88]
  84:	f9400001 	ldr	x1, [x0]
  88:	eb010042 	subs	x2, x2, x1
  8c:	d2800001 	mov	x1, #0x0                   	// #0
  90:	54000040 	b.eq	98 <auto eve::decorated_with<eve::options<rbr::settings<> >, eve::conditional_option, eve::saturated_option>::options() const::{lambda(auto:1, auto:2 const&)#1}::operator()<eve::options<rbr::settings<> >, eve::conditional_option>(eve::options<rbr::settings<> >, eve::conditional_option const&) const+0x98>  // b.none
  94:	94000000 	bl	0 <__stack_chk_fail>
  98:	2a1403e0 	mov	w0, w20
  9c:	a94153f3 	ldp	x19, x20, [sp, #16]
  a0:	a8c67bfd 	ldp	x29, x30, [sp], #96
  a4:	d65f03c0 	ret

Disassembly of section .text._ZNK3rbr10as_keywordIN3eve6detail15condition_key_tEEaSIRKNS1_12ignore_none_EEEDaOT_:

0000000000000000 <auto rbr::as_keyword<eve::detail::condition_key_t>::operator=<eve::ignore_none_ const&>(eve::ignore_none_ const&) const>:
   0:	d10043ff 	sub	sp, sp, #0x10
   4:	f90007e0 	str	x0, [sp, #8]
   8:	f90003e1 	str	x1, [sp]
   c:	2a0203e0 	mov	w0, w2
  10:	910043ff 	add	sp, sp, #0x10
  14:	d65f03c0 	ret

Disassembly of section .text._ZZN3rbr5mergeIJEJNS_6optionIN3eve6detail15condition_key_tERKNS2_12ignore_none_EEEEEEDaRKNS_8settingsIJDpT_EEERKNS9_IJDpT0_EEEENKUlRKNS_6detail4keysIJSB_EEERKT0_RKT1_E0_clIJS4_ENS9_IJEEENS9_IJS8_EEEEEDaSO_SR_SU_:

0000000000000000 <_ZZN3rbr5mergeIJEJNS_6optionIN3eve6detail15condition_key_tERKNS2_12ignore_none_EEEEEEDaRKNS_8settingsIJDpT_EEERKNS9_IJDpT0_EEEENKUlRKNS_6detail4keysIJSB_EEERKT0_RKT1_E0_clIJS4_ENS9_IJEEENS9_IJS8_EEEEEDaSO_SR_SU_>:
   0:	a9ba7bfd 	stp	x29, x30, [sp, #-96]!
   4:	910003fd 	mov	x29, sp
   8:	f9000bf3 	str	x19, [sp, #16]
   c:	f9001fe0 	str	x0, [sp, #56]
  10:	f9001be1 	str	x1, [sp, #48]
  14:	f90017e2 	str	x2, [sp, #40]
  18:	f90013e3 	str	x3, [sp, #32]
  1c:	90000000 	adrp	x0, 0 <__stack_chk_guard>
  20:	f9400000 	ldr	x0, [x0]
  24:	f9400001 	ldr	x1, [x0]
  28:	f9002fe1 	str	x1, [sp, #88]
  2c:	d2800001 	mov	x1, #0x0                   	// #0
  30:	f9401fe0 	ldr	x0, [sp, #56]
  34:	f9400000 	ldr	x0, [x0]
  38:	910103e1 	add	x1, sp, #0x40
  3c:	f94013e3 	ldr	x3, [sp, #32]
  40:	f94017e2 	ldr	x2, [sp, #40]
  44:	94000000 	bl	0 <_ZZN3rbr5mergeIJEJNS_6optionIN3eve6detail15condition_key_tERKNS2_12ignore_none_EEEEEEDaRKNS_8settingsIJDpT_EEERKNS9_IJDpT0_EEEENKUlRKNS_6detail4keysIJSB_EEERKT0_RKT1_E0_clIJS4_ENS9_IJEEENS9_IJS8_EEEEEDaSO_SR_SU_>
  48:	910123e1 	add	x1, sp, #0x48
  4c:	910143e0 	add	x0, sp, #0x50
  50:	94000000 	bl	0 <_ZZN3rbr5mergeIJEJNS_6optionIN3eve6detail15condition_key_tERKNS2_12ignore_none_EEEEEEDaRKNS_8settingsIJDpT_EEERKNS9_IJDpT0_EEEENKUlRKNS_6detail4keysIJSB_EEERKT0_RKT1_E0_clIJS4_ENS9_IJEEENS9_IJS8_EEEEEDaSO_SR_SU_>
  54:	d503201f 	nop
  58:	90000000 	adrp	x0, 0 <__stack_chk_guard>
  5c:	f9400000 	ldr	x0, [x0]
  60:	f9402fe2 	ldr	x2, [sp, #88]
  64:	f9400001 	ldr	x1, [x0]
  68:	eb010042 	subs	x2, x2, x1
  6c:	d2800001 	mov	x1, #0x0                   	// #0
  70:	54000040 	b.eq	78 <_ZZN3rbr5mergeIJEJNS_6optionIN3eve6detail15condition_key_tERKNS2_12ignore_none_EEEEEEDaRKNS_8settingsIJDpT_EEERKNS9_IJDpT0_EEEENKUlRKNS_6detail4keysIJSB_EEERKT0_RKT1_E0_clIJS4_ENS9_IJEEENS9_IJS8_EEEEEDaSO_SR_SU_+0x78>  // b.none
  74:	94000000 	bl	0 <__stack_chk_fail>
  78:	2a1303e0 	mov	w0, w19
  7c:	f9400bf3 	ldr	x19, [sp, #16]
  80:	a8c67bfd 	ldp	x29, x30, [sp], #96
  84:	d65f03c0 	ret

Disassembly of section .text._ZZN3rbr5mergeIJEJNS_6optionIN3eve6detail15condition_key_tERKNS2_12ignore_none_EEEEEEDaRKNS_8settingsIJDpT_EEERKNS9_IJDpT0_EEEENKUlRKT_RKT0_RKT1_E_clIS4_NS9_IJEEENS9_IJS8_EEEEEDaSM_SP_SS_:

0000000000000000 <auto rbr::merge<, rbr::option<eve::detail::condition_key_t, eve::ignore_none_ const&> >(rbr::settings<> const&, rbr::settings<rbr::option<eve::detail::condition_key_t, eve::ignore_none_ const&> > const&)::{lambda(auto:1 const&, auto:2 const&, auto:3 const&)#1}::operator()<eve::detail::condition_key_t, rbr::settings<>, rbr::settings<rbr::option<eve::detail::condition_key_t, eve::ignore_none_ const&> > >(eve::detail::condition_key_t const&, rbr::settings<> const&, rbr::settings<rbr::option<eve::detail::condition_key_t, eve::ignore_none_ const&> > const&) const>:
   0:	a9ba7bfd 	stp	x29, x30, [sp, #-96]!
   4:	910003fd 	mov	x29, sp
   8:	f9000bf3 	str	x19, [sp, #16]
   c:	f9001fe0 	str	x0, [sp, #56]
  10:	f9001be1 	str	x1, [sp, #48]
  14:	f90017e2 	str	x2, [sp, #40]
  18:	f90013e3 	str	x3, [sp, #32]
  1c:	90000000 	adrp	x0, 0 <__stack_chk_guard>
  20:	f9400000 	ldr	x0, [x0]
  24:	f9400001 	ldr	x1, [x0]
  28:	f9002fe1 	str	x1, [sp, #88]
  2c:	d2800001 	mov	x1, #0x0                   	// #0
  30:	910123e0 	add	x0, sp, #0x48
  34:	aa0003e1 	mov	x1, x0
  38:	f94013e0 	ldr	x0, [sp, #32]
  3c:	94000000 	bl	0 <auto rbr::merge<, rbr::option<eve::detail::condition_key_t, eve::ignore_none_ const&> >(rbr::settings<> const&, rbr::settings<rbr::option<eve::detail::condition_key_t, eve::ignore_none_ const&> > const&)::{lambda(auto:1 const&, auto:2 const&, auto:3 const&)#1}::operator()<eve::detail::condition_key_t, rbr::settings<>, rbr::settings<rbr::option<eve::detail::condition_key_t, eve::ignore_none_ const&> > >(eve::detail::condition_key_t const&, rbr::settings<> const&, rbr::settings<rbr::option<eve::detail::condition_key_t, eve::ignore_none_ const&> > const&) const>
  40:	910143e1 	add	x1, sp, #0x50
  44:	910123e0 	add	x0, sp, #0x48
  48:	94000000 	bl	0 <auto rbr::merge<, rbr::option<eve::detail::condition_key_t, eve::ignore_none_ const&> >(rbr::settings<> const&, rbr::settings<rbr::option<eve::detail::condition_key_t, eve::ignore_none_ const&> > const&)::{lambda(auto:1 const&, auto:2 const&, auto:3 const&)#1}::operator()<eve::detail::condition_key_t, rbr::settings<>, rbr::settings<rbr::option<eve::detail::condition_key_t, eve::ignore_none_ const&> > >(eve::detail::condition_key_t const&, rbr::settings<> const&, rbr::settings<rbr::option<eve::detail::condition_key_t, eve::ignore_none_ const&> > const&) const>
  4c:	d503201f 	nop
  50:	90000000 	adrp	x0, 0 <__stack_chk_guard>
  54:	f9400000 	ldr	x0, [x0]
  58:	f9402fe2 	ldr	x2, [sp, #88]
  5c:	f9400001 	ldr	x1, [x0]
  60:	eb010042 	subs	x2, x2, x1
  64:	d2800001 	mov	x1, #0x0                   	// #0
  68:	54000040 	b.eq	70 <auto rbr::merge<, rbr::option<eve::detail::condition_key_t, eve::ignore_none_ const&> >(rbr::settings<> const&, rbr::settings<rbr::option<eve::detail::condition_key_t, eve::ignore_none_ const&> > const&)::{lambda(auto:1 const&, auto:2 const&, auto:3 const&)#1}::operator()<eve::detail::condition_key_t, rbr::settings<>, rbr::settings<rbr::option<eve::detail::condition_key_t, eve::ignore_none_ const&> > >(eve::detail::condition_key_t const&, rbr::settings<> const&, rbr::settings<rbr::option<eve::detail::condition_key_t, eve::ignore_none_ const&> > const&) const+0x70>  // b.none
  6c:	94000000 	bl	0 <__stack_chk_fail>
  70:	2a1303e0 	mov	w0, w19
  74:	f9400bf3 	ldr	x19, [sp, #16]
  78:	a8c67bfd 	ldp	x29, x30, [sp], #96
  7c:	d65f03c0 	ret

Disassembly of section .text._ZNK3rbr8settingsIJNS_6optionIN3eve6detail15condition_key_tERKNS2_12ignore_none_EEEEEixIS4_EEDaRKT_:

0000000000000000 <auto rbr::settings<rbr::option<eve::detail::condition_key_t, eve::ignore_none_ const&> >::operator[]<eve::detail::condition_key_t>(eve::detail::condition_key_t const&) const>:
   0:	a9bd7bfd 	stp	x29, x30, [sp, #-48]!
   4:	910003fd 	mov	x29, sp
   8:	f9000bf3 	str	x19, [sp, #16]
   c:	f90017e0 	str	x0, [sp, #40]
  10:	f90013e1 	str	x1, [sp, #32]
  14:	f94017e0 	ldr	x0, [sp, #40]
  18:	f94013e1 	ldr	x1, [sp, #32]
  1c:	94000000 	bl	0 <auto rbr::settings<rbr::option<eve::detail::condition_key_t, eve::ignore_none_ const&> >::operator[]<eve::detail::condition_key_t>(eve::detail::condition_key_t const&) const>
  20:	d503201f 	nop
  24:	2a1303e0 	mov	w0, w19
  28:	f9400bf3 	ldr	x19, [sp, #16]
  2c:	a8c37bfd 	ldp	x29, x30, [sp], #48
  30:	d65f03c0 	ret

Disassembly of section .text._ZNK3rbr10as_keywordIN3eve6detail15condition_key_tEEaSINS1_12ignore_none_EEEDaOT_:

0000000000000000 <auto rbr::as_keyword<eve::detail::condition_key_t>::operator=<eve::ignore_none_>(eve::ignore_none_&&) const>:
   0:	d10043ff 	sub	sp, sp, #0x10
   4:	f90007e0 	str	x0, [sp, #8]
   8:	f90003e1 	str	x1, [sp]
   c:	2a0203e0 	mov	w0, w2
  10:	910043ff 	add	sp, sp, #0x10
  14:	d65f03c0 	ret

Disassembly of section .text._ZN3rbr5mergeIJEJNS_6optionIN3eve6detail15condition_key_tERKNS2_12ignore_none_EEEEEEDaRKNS_8settingsIJDpT_EEERKNS9_IJDpT0_EEE:

0000000000000000 <auto rbr::merge<, rbr::option<eve::detail::condition_key_t, eve::ignore_none_ const&> >(rbr::settings<> const&, rbr::settings<rbr::option<eve::detail::condition_key_t, eve::ignore_none_ const&> > const&)>:
   0:	a9bb7bfd 	stp	x29, x30, [sp, #-80]!
   4:	910003fd 	mov	x29, sp
   8:	f9000bf3 	str	x19, [sp, #16]
   c:	f90017e0 	str	x0, [sp, #40]
  10:	f90013e1 	str	x1, [sp, #32]
  14:	90000000 	adrp	x0, 0 <__stack_chk_guard>
  18:	f9400000 	ldr	x0, [x0]
  1c:	f9400001 	ldr	x1, [x0]
  20:	f90027e1 	str	x1, [sp, #72]
  24:	d2800001 	mov	x1, #0x0                   	// #0
  28:	9100c3e0 	add	x0, sp, #0x30
  2c:	f90023e0 	str	x0, [sp, #64]
  30:	9100e3e1 	add	x1, sp, #0x38
  34:	910103e0 	add	x0, sp, #0x40
  38:	f94013e3 	ldr	x3, [sp, #32]
  3c:	f94017e2 	ldr	x2, [sp, #40]
  40:	94000000 	bl	0 <auto rbr::merge<, rbr::option<eve::detail::condition_key_t, eve::ignore_none_ const&> >(rbr::settings<> const&, rbr::settings<rbr::option<eve::detail::condition_key_t, eve::ignore_none_ const&> > const&)>
  44:	d503201f 	nop
  48:	90000000 	adrp	x0, 0 <__stack_chk_guard>
  4c:	f9400000 	ldr	x0, [x0]
  50:	f94027e2 	ldr	x2, [sp, #72]
  54:	f9400001 	ldr	x1, [x0]
  58:	eb010042 	subs	x2, x2, x1
  5c:	d2800001 	mov	x1, #0x0                   	// #0
  60:	54000040 	b.eq	68 <auto rbr::merge<, rbr::option<eve::detail::condition_key_t, eve::ignore_none_ const&> >(rbr::settings<> const&, rbr::settings<rbr::option<eve::detail::condition_key_t, eve::ignore_none_ const&> > const&)+0x68>  // b.none
  64:	94000000 	bl	0 <__stack_chk_fail>
  68:	2a1303e0 	mov	w0, w19
  6c:	f9400bf3 	ldr	x19, [sp, #16]
  70:	a8c57bfd 	ldp	x29, x30, [sp], #80
  74:	d65f03c0 	ret

Disassembly of section .text._ZN4kumi1_rsIN3eve7optionsIN3rbr8settingsIJEEEEEEEDcONS0_8foldableIZNKS2_14decorated_withIS7_JNS2_18conditional_optionENS2_16saturated_optionEEE7optionsEvEUlT_RKT0_E_SA_EEONS8_ISH_SD_EE:

0000000000000000 <decltype(auto) kumi::_::operator>><eve::options<rbr::settings<> > >(kumi::_::foldable<eve::decorated_with<eve::options<rbr::settings<> >, eve::conditional_option, eve::saturated_option>::options() const::{lambda(auto:1, auto:2 const&)#1}, eve::conditional_option>&&, kumi::_::foldable<eve::decorated_with<eve::options<rbr::settings<> >, eve::conditional_option, eve::saturated_option>::options() const::{lambda(auto:1, auto:2 const&)#1}, eve::options<rbr::settings<> > >&&)>:
   0:	a9bd7bfd 	stp	x29, x30, [sp, #-48]!
   4:	910003fd 	mov	x29, sp
   8:	f9000bf3 	str	x19, [sp, #16]
   c:	f90017e0 	str	x0, [sp, #40]
  10:	f90013e1 	str	x1, [sp, #32]
  14:	f94017e3 	ldr	x3, [sp, #40]
  18:	f94017e0 	ldr	x0, [sp, #40]
  1c:	91000401 	add	x1, x0, #0x1
  20:	f94013e0 	ldr	x0, [sp, #32]
  24:	aa0103e2 	mov	x2, x1
  28:	39400401 	ldrb	w1, [x0, #1]
  2c:	aa0303e0 	mov	x0, x3
  30:	94000000 	bl	0 <decltype(auto) kumi::_::operator>><eve::options<rbr::settings<> > >(kumi::_::foldable<eve::decorated_with<eve::options<rbr::settings<> >, eve::conditional_option, eve::saturated_option>::options() const::{lambda(auto:1, auto:2 const&)#1}, eve::conditional_option>&&, kumi::_::foldable<eve::decorated_with<eve::options<rbr::settings<> >, eve::conditional_option, eve::saturated_option>::options() const::{lambda(auto:1, auto:2 const&)#1}, eve::options<rbr::settings<> > >&&)>
  34:	2a1303e0 	mov	w0, w19
  38:	f9400bf3 	ldr	x19, [sp, #16]
  3c:	a8c37bfd 	ldp	x29, x30, [sp], #48
  40:	d65f03c0 	ret

Disassembly of section .text._ZN4kumi9fold_leftIZNK3eve14decorated_withINS1_7optionsIN3rbr8settingsIJEEEEEJNS1_18conditional_optionENS1_16saturated_optionEEE7optionsEvEUlT_RKT0_E_NS_5tupleIJS8_S9_EEES7_EEDaSB_OSC_T1_:

0000000000000000 <auto kumi::fold_left<eve::decorated_with<eve::options<rbr::settings<> >, eve::conditional_option, eve::saturated_option>::options() const::{lambda(auto:1, auto:2 const&)#1}, kumi::tuple<eve::conditional_option, eve::saturated_option>, eve::options<rbr::settings<> > >(eve::decorated_with<eve::options<rbr::settings<> >, eve::conditional_option, eve::saturated_option>::options() const::{lambda(auto:1, auto:2 const&)#1}, kumi::tuple<eve::conditional_option, eve::saturated_option>&&, eve::options<rbr::settings<> >)>:
   0:	a9ba7bfd 	stp	x29, x30, [sp, #-96]!
   4:	910003fd 	mov	x29, sp
   8:	f9000bf3 	str	x19, [sp, #16]
   c:	3900e3e0 	strb	w0, [sp, #56]
  10:	f9001be1 	str	x1, [sp, #48]
  14:	3900a3e2 	strb	w2, [sp, #40]
  18:	90000000 	adrp	x0, 0 <__stack_chk_guard>
  1c:	f9400000 	ldr	x0, [x0]
  20:	f9400001 	ldr	x1, [x0]
  24:	f9002fe1 	str	x1, [sp, #88]
  28:	d2800001 	mov	x1, #0x0                   	// #0
  2c:	9100e3e0 	add	x0, sp, #0x38
  30:	f90023e0 	str	x0, [sp, #64]
  34:	f9401be0 	ldr	x0, [sp, #48]
  38:	f90027e0 	str	x0, [sp, #72]
  3c:	9100a3e0 	add	x0, sp, #0x28
  40:	f9002be0 	str	x0, [sp, #80]
  44:	910103e0 	add	x0, sp, #0x40
  48:	2a0303e1 	mov	w1, w3
  4c:	94000000 	bl	0 <auto kumi::fold_left<eve::decorated_with<eve::options<rbr::settings<> >, eve::conditional_option, eve::saturated_option>::options() const::{lambda(auto:1, auto:2 const&)#1}, kumi::tuple<eve::conditional_option, eve::saturated_option>, eve::options<rbr::settings<> > >(eve::decorated_with<eve::options<rbr::settings<> >, eve::conditional_option, eve::saturated_option>::options() const::{lambda(auto:1, auto:2 const&)#1}, kumi::tuple<eve::conditional_option, eve::saturated_option>&&, eve::options<rbr::settings<> >)>
  50:	d503201f 	nop
  54:	90000000 	adrp	x0, 0 <__stack_chk_guard>
  58:	f9400000 	ldr	x0, [x0]
  5c:	f9402fe2 	ldr	x2, [sp, #88]
  60:	f9400001 	ldr	x1, [x0]
  64:	eb010042 	subs	x2, x2, x1
  68:	d2800001 	mov	x1, #0x0                   	// #0
  6c:	54000040 	b.eq	74 <auto kumi::fold_left<eve::decorated_with<eve::options<rbr::settings<> >, eve::conditional_option, eve::saturated_option>::options() const::{lambda(auto:1, auto:2 const&)#1}, kumi::tuple<eve::conditional_option, eve::saturated_option>, eve::options<rbr::settings<> > >(eve::decorated_with<eve::options<rbr::settings<> >, eve::conditional_option, eve::saturated_option>::options() const::{lambda(auto:1, auto:2 const&)#1}, kumi::tuple<eve::conditional_option, eve::saturated_option>&&, eve::options<rbr::settings<> >)+0x74>  // b.none
  70:	94000000 	bl	0 <__stack_chk_fail>
  74:	2a1303e0 	mov	w0, w19
  78:	f9400bf3 	ldr	x19, [sp, #16]
  7c:	a8c67bfd 	ldp	x29, x30, [sp], #96
  80:	d65f03c0 	ret

Disassembly of section .text._ZNK3rbr6optionIN3eve6detail15condition_key_tERKNS1_12ignore_none_EEclERKS3_:

0000000000000000 <rbr::option<eve::detail::condition_key_t, eve::ignore_none_ const&>::operator()(eve::detail::condition_key_t const&) const>:
   0:	d10043ff 	sub	sp, sp, #0x10
   4:	f90007e0 	str	x0, [sp, #8]
   8:	f90003e1 	str	x1, [sp]
   c:	d503201f 	nop
  10:	2a0203e0 	mov	w0, w2
  14:	910043ff 	add	sp, sp, #0x10
  18:	d65f03c0 	ret

Disassembly of section .text._ZN3rbr10aggregatorIJNS_6optionIN3eve6detail15condition_key_tENS2_12ignore_none_EEEEEC2ERKS6_:

0000000000000000 <rbr::aggregator<rbr::option<eve::detail::condition_key_t, eve::ignore_none_> >::aggregator(rbr::option<eve::detail::condition_key_t, eve::ignore_none_> const&)>:
   0:	d10043ff 	sub	sp, sp, #0x10
   4:	f90007e0 	str	x0, [sp, #8]
   8:	f90003e1 	str	x1, [sp]
   c:	d503201f 	nop
  10:	910043ff 	add	sp, sp, #0x10
  14:	d65f03c0 	ret

Disassembly of section .text._ZN3rbr8settingsIJNS_6optionIN3eve6detail15condition_key_tENS2_12ignore_none_EEEEEC2ERKS6_:

0000000000000000 <rbr::settings<rbr::option<eve::detail::condition_key_t, eve::ignore_none_> >::settings(rbr::option<eve::detail::condition_key_t, eve::ignore_none_> const&)>:
   0:	a9be7bfd 	stp	x29, x30, [sp, #-32]!
   4:	910003fd 	mov	x29, sp
   8:	f9000fe0 	str	x0, [sp, #24]
   c:	f9000be1 	str	x1, [sp, #16]
  10:	f9400fe0 	ldr	x0, [sp, #24]
  14:	f9400be1 	ldr	x1, [sp, #16]
  18:	94000000 	bl	0 <rbr::settings<rbr::option<eve::detail::condition_key_t, eve::ignore_none_> >::settings(rbr::option<eve::detail::condition_key_t, eve::ignore_none_> const&)>
  1c:	d503201f 	nop
  20:	a8c27bfd 	ldp	x29, x30, [sp], #32
  24:	d65f03c0 	ret

Disassembly of section .text._ZN3rbr10aggregatorIJNS_6optionIN3eve6detail15condition_key_tERKNS2_12ignore_none_EEEEEC2ERKS8_:

0000000000000000 <rbr::aggregator<rbr::option<eve::detail::condition_key_t, eve::ignore_none_ const&> >::aggregator(rbr::option<eve::detail::condition_key_t, eve::ignore_none_ const&> const&)>:
   0:	d10043ff 	sub	sp, sp, #0x10
   4:	f90007e0 	str	x0, [sp, #8]
   8:	f90003e1 	str	x1, [sp]
   c:	d503201f 	nop
  10:	910043ff 	add	sp, sp, #0x10
  14:	d65f03c0 	ret

Disassembly of section .text._ZN3rbr8settingsIJNS_6optionIN3eve6detail15condition_key_tERKNS2_12ignore_none_EEEEEC2ERKS8_:

0000000000000000 <rbr::settings<rbr::option<eve::detail::condition_key_t, eve::ignore_none_ const&> >::settings(rbr::option<eve::detail::condition_key_t, eve::ignore_none_ const&> const&)>:
   0:	a9be7bfd 	stp	x29, x30, [sp, #-32]!
   4:	910003fd 	mov	x29, sp
   8:	f9000fe0 	str	x0, [sp, #24]
   c:	f9000be1 	str	x1, [sp, #16]
  10:	f9400fe0 	ldr	x0, [sp, #24]
  14:	f9400be1 	ldr	x1, [sp, #16]
  18:	94000000 	bl	0 <rbr::settings<rbr::option<eve::detail::condition_key_t, eve::ignore_none_ const&> >::settings(rbr::option<eve::detail::condition_key_t, eve::ignore_none_ const&> const&)>
  1c:	d503201f 	nop
  20:	a8c27bfd 	ldp	x29, x30, [sp], #32
  24:	d65f03c0 	ret

Disassembly of section .text._ZZN3eve6detail5applyILm2EZNS0_3mapIRKNS_5abs_tINS_7optionsIN3rbr8settingsIJEEEEEEEJRKNS_10arm_abi_v04wideIdNS_5fixedILl2EEEEEEEENS0_11wide_resultIT_JDpT0_EE4typeEOSK_DpOSL_EUlDpT_E_EEDcOT0_ENKUlRKSt16integer_sequenceImJXspT_EEEE_clIJLm0ELm1EEEEDaS10_:

0000000000000000 <_ZZN3eve6detail5applyILm2EZNS0_3mapIRKNS_5abs_tINS_7optionsIN3rbr8settingsIJEEEEEEEJRKNS_10arm_abi_v04wideIdNS_5fixedILl2EEEEEEEENS0_11wide_resultIT_JDpT0_EE4typeEOSK_DpOSL_EUlDpT_E_EEDcOT0_ENKUlRKSt16integer_sequenceImJXspT_EEEE_clIJLm0ELm1EEEEDaS10_>:
   0:	a9be7bfd 	stp	x29, x30, [sp, #-32]!
   4:	910003fd 	mov	x29, sp
   8:	f9000fe0 	str	x0, [sp, #24]
   c:	f9000be1 	str	x1, [sp, #16]
  10:	f9400fe0 	ldr	x0, [sp, #24]
  14:	f9400000 	ldr	x0, [x0]
  18:	2a0303e1 	mov	w1, w3
  1c:	94000000 	bl	0 <_ZZN3eve6detail5applyILm2EZNS0_3mapIRKNS_5abs_tINS_7optionsIN3rbr8settingsIJEEEEEEEJRKNS_10arm_abi_v04wideIdNS_5fixedILl2EEEEEEEENS0_11wide_resultIT_JDpT0_EE4typeEOSK_DpOSL_EUlDpT_E_EEDcOT0_ENKUlRKSt16integer_sequenceImJXspT_EEEE_clIJLm0ELm1EEEEDaS10_>
  20:	a8c27bfd 	ldp	x29, x30, [sp], #32
  24:	d65f03c0 	ret

Disassembly of section .text._ZZN3eve6detail3mapIRKNS_5abs_tINS_7optionsIN3rbr8settingsIJEEEEEEEJRKNS_10arm_abi_v04wideIdNS_5fixedILl2EEEEEEEENS0_11wide_resultIT_JDpT0_EE4typeEOSJ_DpOSK_ENKUlDpT_E_clIJSt17integral_constantImLm0EESV_ImLm1EEEEEDaSS_:

0000000000000000 <_ZZN3eve6detail3mapIRKNS_5abs_tINS_7optionsIN3rbr8settingsIJEEEEEEEJRKNS_10arm_abi_v04wideIdNS_5fixedILl2EEEEEEEENS0_11wide_resultIT_JDpT0_EE4typeEOSJ_DpOSK_ENKUlDpT_E_clIJSt17integral_constantImLm0EESV_ImLm1EEEEEDaSS_>:
   0:	d10983ff 	sub	sp, sp, #0x260
   4:	a9007bfd 	stp	x29, x30, [sp]
   8:	910003fd 	mov	x29, sp
   c:	a90153f3 	stp	x19, x20, [sp, #16]
  10:	a9025bf5 	stp	x21, x22, [sp, #32]
  14:	a90363f7 	stp	x23, x24, [sp, #48]
  18:	a9046bf9 	stp	x25, x26, [sp, #64]
  1c:	a90573fb 	stp	x27, x28, [sp, #80]
  20:	fd0033e8 	str	d8, [sp, #96]
  24:	f90047e0 	str	x0, [sp, #136]
  28:	390203e1 	strb	w1, [sp, #128]
  2c:	3901e3e2 	strb	w2, [sp, #120]
  30:	90000000 	adrp	x0, 0 <__stack_chk_guard>
  34:	f9400000 	ldr	x0, [x0]
  38:	f9400001 	ldr	x1, [x0]
  3c:	f9012fe1 	str	x1, [sp, #600]
  40:	d2800001 	mov	x1, #0x0                   	// #0
  44:	f94047e0 	ldr	x0, [sp, #136]
  48:	f9400001 	ldr	x1, [x0]
  4c:	f94047e0 	ldr	x0, [sp, #136]
  50:	f9400400 	ldr	x0, [x0, #8]
  54:	f900c3e1 	str	x1, [sp, #384]
  58:	390243e3 	strb	w3, [sp, #144]
  5c:	f900c7e0 	str	x0, [sp, #392]
  60:	910243e0 	add	x0, sp, #0x90
  64:	94000000 	bl	0 <_ZZN3eve6detail3mapIRKNS_5abs_tINS_7optionsIN3rbr8settingsIJEEEEEEEJRKNS_10arm_abi_v04wideIdNS_5fixedILl2EEEEEEEENS0_11wide_resultIT_JDpT0_EE4typeEOSJ_DpOSK_ENKUlDpT_E_clIJSt17integral_constantImLm0EESV_ImLm1EEEEEDaSS_>
  68:	aa0003e1 	mov	x1, x0
  6c:	f940c7e0 	ldr	x0, [sp, #392]
  70:	f900cbe0 	str	x0, [sp, #400]
  74:	f900cfe1 	str	x1, [sp, #408]
  78:	f940cbe0 	ldr	x0, [sp, #400]
  7c:	f900d3e0 	str	x0, [sp, #416]
  80:	f940cfe0 	ldr	x0, [sp, #408]
  84:	f900d7e0 	str	x0, [sp, #424]
  88:	f940d3e0 	ldr	x0, [sp, #416]
  8c:	f900dbe0 	str	x0, [sp, #432]
  90:	f940d7e0 	ldr	x0, [sp, #424]
  94:	f900dfe0 	str	x0, [sp, #440]
  98:	f940dbe0 	ldr	x0, [sp, #432]
  9c:	f900e3e0 	str	x0, [sp, #448]
  a0:	f940e3e0 	ldr	x0, [sp, #448]
  a4:	3dc00000 	ldr	q0, [x0]
  a8:	3d808fe0 	str	q0, [sp, #560]
  ac:	910803e0 	add	x0, sp, #0x200
  b0:	a9430400 	ldp	x0, x1, [x0, #48]
  b4:	910803e2 	add	x2, sp, #0x200
  b8:	a9048440 	stp	x0, x1, [x2, #72]
  bc:	f940dfe0 	ldr	x0, [sp, #440]
  c0:	d37df000 	lsl	x0, x0, #3
  c4:	910923e1 	add	x1, sp, #0x248
  c8:	fc606820 	ldr	d0, [x1, x0]
  cc:	d503201f 	nop
  d0:	d503201f 	nop
  d4:	f940c3e0 	ldr	x0, [sp, #384]
  d8:	f900e7e0 	str	x0, [sp, #456]
  dc:	fd00ebe0 	str	d0, [sp, #464]
  e0:	f940e7f3 	ldr	x19, [sp, #456]
  e4:	f940e7e0 	ldr	x0, [sp, #456]
  e8:	f900efe0 	str	x0, [sp, #472]
  ec:	f940efe0 	ldr	x0, [sp, #472]
  f0:	9108c3e1 	add	x1, sp, #0x230
  f4:	39400002 	ldrb	w2, [x0]
  f8:	3941dbe0 	ldrb	w0, [sp, #118]
  fc:	94000000 	bl	0 <_ZZN3eve6detail3mapIRKNS_5abs_tINS_7optionsIN3rbr8settingsIJEEEEEEEJRKNS_10arm_abi_v04wideIdNS_5fixedILl2EEEEEEEENS0_11wide_resultIT_JDpT0_EE4typeEOSJ_DpOSK_ENKUlDpT_E_clIJSt17integral_constantImLm0EESV_ImLm1EEEEEDaSS_>
 100:	14000002 	b	108 <_ZZN3eve6detail3mapIRKNS_5abs_tINS_7optionsIN3rbr8settingsIJEEEEEEEJRKNS_10arm_abi_v04wideIdNS_5fixedILl2EEEEEEEENS0_11wide_resultIT_JDpT0_EE4typeEOSJ_DpOSK_ENKUlDpT_E_clIJSt17integral_constantImLm0EESV_ImLm1EEEEEDaSS_+0x108>
 104:	94000000 	bl	0 <std::terminate()>
 108:	f900f3f3 	str	x19, [sp, #480]
 10c:	390263fc 	strb	w28, [sp, #152]
 110:	fd40ebe0 	ldr	d0, [sp, #464]
 114:	fd00f7e0 	str	d0, [sp, #488]
 118:	52800020 	mov	w0, #0x1                   	// #1
 11c:	3902e7e0 	strb	w0, [sp, #185]
 120:	f940f3e0 	ldr	x0, [sp, #480]
 124:	f900fbe0 	str	x0, [sp, #496]
 128:	390283fb 	strb	w27, [sp, #160]
 12c:	910883e0 	add	x0, sp, #0x220
 130:	f900ffe0 	str	x0, [sp, #504]
 134:	fd40f7e0 	ldr	d0, [sp, #488]
 138:	fd0103e0 	str	d0, [sp, #512]
 13c:	52800020 	mov	w0, #0x1                   	// #1
 140:	3902ebe0 	strb	w0, [sp, #186]
 144:	52800020 	mov	w0, #0x1                   	// #1
 148:	3902efe0 	strb	w0, [sp, #187]
 14c:	f940fbe0 	ldr	x0, [sp, #496]
 150:	f90107e0 	str	x0, [sp, #520]
 154:	3902a3fa 	strb	w26, [sp, #168]
 158:	f940ffe0 	ldr	x0, [sp, #504]
 15c:	f9010be0 	str	x0, [sp, #528]
 160:	fd4103e0 	ldr	d0, [sp, #512]
 164:	fd011be0 	str	d0, [sp, #560]
 168:	52800020 	mov	w0, #0x1                   	// #1
 16c:	3902f3e0 	strb	w0, [sp, #188]
 170:	52800020 	mov	w0, #0x1                   	// #1
 174:	3902f7e0 	strb	w0, [sp, #189]
 178:	3902fbff 	strb	wzr, [sp, #190]
 17c:	3902ffff 	strb	wzr, [sp, #191]
 180:	3902c3f9 	strb	w25, [sp, #176]
 184:	f9410be0 	ldr	x0, [sp, #528]
 188:	f9010fe0 	str	x0, [sp, #536]
 18c:	9108c3e1 	add	x1, sp, #0x230
 190:	9102c3e0 	add	x0, sp, #0xb0
 194:	aa0103e3 	mov	x3, x1
 198:	f9410fe2 	ldr	x2, [sp, #536]
 19c:	aa0003e1 	mov	x1, x0
 1a0:	90000000 	adrp	x0, 0 <_ZZN3eve6detail3mapIRKNS_5abs_tINS_7optionsIN3rbr8settingsIJEEEEEEEJRKNS_10arm_abi_v04wideIdNS_5fixedILl2EEEEEEEENS0_11wide_resultIT_JDpT0_EE4typeEOSJ_DpOSK_ENKUlDpT_E_clIJSt17integral_constantImLm0EESV_ImLm1EEEEEDaSS_>
 1a4:	91000000 	add	x0, x0, #0x0
 1a8:	94000000 	bl	0 <_ZZN3eve6detail3mapIRKNS_5abs_tINS_7optionsIN3rbr8settingsIJEEEEEEEJRKNS_10arm_abi_v04wideIdNS_5fixedILl2EEEEEEEENS0_11wide_resultIT_JDpT0_EE4typeEOSJ_DpOSK_ENKUlDpT_E_clIJSt17integral_constantImLm0EESV_ImLm1EEEEEDaSS_>
 1ac:	1e604008 	fmov	d8, d0
 1b0:	d503201f 	nop
 1b4:	d503201f 	nop
 1b8:	d503201f 	nop
 1bc:	d503201f 	nop
 1c0:	d503201f 	nop
 1c4:	f94047e0 	ldr	x0, [sp, #136]
 1c8:	f9400001 	ldr	x1, [x0]
 1cc:	f94047e0 	ldr	x0, [sp, #136]
 1d0:	f9400400 	ldr	x0, [x0, #8]
 1d4:	f90073e1 	str	x1, [sp, #224]
 1d8:	390243f8 	strb	w24, [sp, #144]
 1dc:	f90077e0 	str	x0, [sp, #232]
 1e0:	910243e0 	add	x0, sp, #0x90
 1e4:	94000000 	bl	0 <_ZZN3eve6detail3mapIRKNS_5abs_tINS_7optionsIN3rbr8settingsIJEEEEEEEJRKNS_10arm_abi_v04wideIdNS_5fixedILl2EEEEEEEENS0_11wide_resultIT_JDpT0_EE4typeEOSJ_DpOSK_ENKUlDpT_E_clIJSt17integral_constantImLm0EESV_ImLm1EEEEEDaSS_>
 1e8:	aa0003e1 	mov	x1, x0
 1ec:	f94077e0 	ldr	x0, [sp, #232]
 1f0:	f9007be0 	str	x0, [sp, #240]
 1f4:	f9007fe1 	str	x1, [sp, #248]
 1f8:	f9407be0 	ldr	x0, [sp, #240]
 1fc:	f90083e0 	str	x0, [sp, #256]
 200:	f9407fe0 	ldr	x0, [sp, #248]
 204:	f90087e0 	str	x0, [sp, #264]
 208:	f94083e0 	ldr	x0, [sp, #256]
 20c:	f9008be0 	str	x0, [sp, #272]
 210:	f94087e0 	ldr	x0, [sp, #264]
 214:	f9008fe0 	str	x0, [sp, #280]
 218:	f9408be0 	ldr	x0, [sp, #272]
 21c:	f90093e0 	str	x0, [sp, #288]
 220:	f94093e0 	ldr	x0, [sp, #288]
 224:	3dc00000 	ldr	q0, [x0]
 228:	3d808fe0 	str	q0, [sp, #560]
 22c:	910803e0 	add	x0, sp, #0x200
 230:	a9430400 	ldp	x0, x1, [x0, #48]
 234:	910803e2 	add	x2, sp, #0x200
 238:	a9048440 	stp	x0, x1, [x2, #72]
 23c:	f9408fe0 	ldr	x0, [sp, #280]
 240:	d37df000 	lsl	x0, x0, #3
 244:	910923e1 	add	x1, sp, #0x248
 248:	fc606820 	ldr	d0, [x1, x0]
 24c:	d503201f 	nop
 250:	d503201f 	nop
 254:	f94073e0 	ldr	x0, [sp, #224]
 258:	f90097e0 	str	x0, [sp, #296]
 25c:	fd009be0 	str	d0, [sp, #304]
 260:	f94097f3 	ldr	x19, [sp, #296]
 264:	f94097e0 	ldr	x0, [sp, #296]
 268:	f9009fe0 	str	x0, [sp, #312]
 26c:	f9409fe0 	ldr	x0, [sp, #312]
 270:	9108c3e1 	add	x1, sp, #0x230
 274:	39400002 	ldrb	w2, [x0]
 278:	3941dfe0 	ldrb	w0, [sp, #119]
 27c:	94000000 	bl	0 <_ZZN3eve6detail3mapIRKNS_5abs_tINS_7optionsIN3rbr8settingsIJEEEEEEEJRKNS_10arm_abi_v04wideIdNS_5fixedILl2EEEEEEEENS0_11wide_resultIT_JDpT0_EE4typeEOSJ_DpOSK_ENKUlDpT_E_clIJSt17integral_constantImLm0EESV_ImLm1EEEEEDaSS_>
 280:	14000002 	b	288 <_ZZN3eve6detail3mapIRKNS_5abs_tINS_7optionsIN3rbr8settingsIJEEEEEEEJRKNS_10arm_abi_v04wideIdNS_5fixedILl2EEEEEEEENS0_11wide_resultIT_JDpT0_EE4typeEOSJ_DpOSK_ENKUlDpT_E_clIJSt17integral_constantImLm0EESV_ImLm1EEEEEDaSS_+0x288>
 284:	94000000 	bl	0 <std::terminate()>
 288:	f900a3f3 	str	x19, [sp, #320]
 28c:	390263f7 	strb	w23, [sp, #152]
 290:	fd409be0 	ldr	d0, [sp, #304]
 294:	fd00a7e0 	str	d0, [sp, #328]
 298:	52800020 	mov	w0, #0x1                   	// #1
 29c:	3902cbe0 	strb	w0, [sp, #178]
 2a0:	f940a3e0 	ldr	x0, [sp, #320]
 2a4:	f900abe0 	str	x0, [sp, #336]
 2a8:	390283f6 	strb	w22, [sp, #160]
 2ac:	910883e0 	add	x0, sp, #0x220
 2b0:	f900afe0 	str	x0, [sp, #344]
 2b4:	fd40a7e0 	ldr	d0, [sp, #328]
 2b8:	fd00b3e0 	str	d0, [sp, #352]
 2bc:	52800020 	mov	w0, #0x1                   	// #1
 2c0:	3902cfe0 	strb	w0, [sp, #179]
 2c4:	52800020 	mov	w0, #0x1                   	// #1
 2c8:	3902d3e0 	strb	w0, [sp, #180]
 2cc:	f940abe0 	ldr	x0, [sp, #336]
 2d0:	f900b7e0 	str	x0, [sp, #360]
 2d4:	3902a3f5 	strb	w21, [sp, #168]
 2d8:	f940afe0 	ldr	x0, [sp, #344]
 2dc:	f900bbe0 	str	x0, [sp, #368]
 2e0:	fd40b3e0 	ldr	d0, [sp, #352]
 2e4:	fd011be0 	str	d0, [sp, #560]
 2e8:	52800020 	mov	w0, #0x1                   	// #1
 2ec:	3902d7e0 	strb	w0, [sp, #181]
 2f0:	52800020 	mov	w0, #0x1                   	// #1
 2f4:	3902dbe0 	strb	w0, [sp, #182]
 2f8:	3902dfff 	strb	wzr, [sp, #183]
 2fc:	3902e3ff 	strb	wzr, [sp, #184]
 300:	3902c3f4 	strb	w20, [sp, #176]
 304:	f940bbe0 	ldr	x0, [sp, #368]
 308:	f900bfe0 	str	x0, [sp, #376]
 30c:	9108c3e1 	add	x1, sp, #0x230
 310:	9102c3e0 	add	x0, sp, #0xb0
 314:	aa0103e3 	mov	x3, x1
 318:	f940bfe2 	ldr	x2, [sp, #376]
 31c:	aa0003e1 	mov	x1, x0
 320:	90000000 	adrp	x0, 0 <_ZZN3eve6detail3mapIRKNS_5abs_tINS_7optionsIN3rbr8settingsIJEEEEEEEJRKNS_10arm_abi_v04wideIdNS_5fixedILl2EEEEEEEENS0_11wide_resultIT_JDpT0_EE4typeEOSJ_DpOSK_ENKUlDpT_E_clIJSt17integral_constantImLm0EESV_ImLm1EEEEEDaSS_>
 324:	91000000 	add	x0, x0, #0x0
 328:	94000000 	bl	0 <_ZZN3eve6detail3mapIRKNS_5abs_tINS_7optionsIN3rbr8settingsIJEEEEEEEJRKNS_10arm_abi_v04wideIdNS_5fixedILl2EEEEEEEENS0_11wide_resultIT_JDpT0_EE4typeEOSJ_DpOSK_ENKUlDpT_E_clIJSt17integral_constantImLm0EESV_ImLm1EEEEEDaSS_>
 32c:	d503201f 	nop
 330:	d503201f 	nop
 334:	d503201f 	nop
 338:	d503201f 	nop
 33c:	d503201f 	nop
 340:	fd0063e8 	str	d8, [sp, #192]
 344:	fd0067e0 	str	d0, [sp, #200]
 348:	910883f3 	add	x19, sp, #0x220
 34c:	9102c3e0 	add	x0, sp, #0xb0
 350:	94000000 	bl	0 <_ZZN3eve6detail3mapIRKNS_5abs_tINS_7optionsIN3rbr8settingsIJEEEEEEEJRKNS_10arm_abi_v04wideIdNS_5fixedILl2EEEEEEEENS0_11wide_resultIT_JDpT0_EE4typeEOSJ_DpOSK_ENKUlDpT_E_clIJSt17integral_constantImLm0EESV_ImLm1EEEEEDaSS_>
 354:	fd4063e0 	ldr	d0, [sp, #192]
 358:	fd006be0 	str	d0, [sp, #208]
 35c:	fd4067e0 	ldr	d0, [sp, #200]
 360:	fd006fe0 	str	d0, [sp, #216]
 364:	9108c3e0 	add	x0, sp, #0x230
 368:	fd406fe1 	ldr	d1, [sp, #216]
 36c:	fd406be0 	ldr	d0, [sp, #208]
 370:	94000000 	bl	0 <_ZZN3eve6detail3mapIRKNS_5abs_tINS_7optionsIN3rbr8settingsIJEEEEEEEJRKNS_10arm_abi_v04wideIdNS_5fixedILl2EEEEEEEENS0_11wide_resultIT_JDpT0_EE4typeEOSJ_DpOSK_ENKUlDpT_E_clIJSt17integral_constantImLm0EESV_ImLm1EEEEEDaSS_>
 374:	d503201f 	nop
 378:	3d808fe0 	str	q0, [sp, #560]
 37c:	9108c3e0 	add	x0, sp, #0x230
 380:	aa0003e1 	mov	x1, x0
 384:	aa1303e0 	mov	x0, x19
 388:	94000000 	bl	0 <_ZZN3eve6detail3mapIRKNS_5abs_tINS_7optionsIN3rbr8settingsIJEEEEEEEJRKNS_10arm_abi_v04wideIdNS_5fixedILl2EEEEEEEENS0_11wide_resultIT_JDpT0_EE4typeEOSJ_DpOSK_ENKUlDpT_E_clIJSt17integral_constantImLm0EESV_ImLm1EEEEEDaSS_>
 38c:	d503201f 	nop
 390:	3dc08be0 	ldr	q0, [sp, #544]
 394:	90000000 	adrp	x0, 0 <__stack_chk_guard>
 398:	f9400000 	ldr	x0, [x0]
 39c:	f9412fe2 	ldr	x2, [sp, #600]
 3a0:	f9400001 	ldr	x1, [x0]
 3a4:	eb010042 	subs	x2, x2, x1
 3a8:	d2800001 	mov	x1, #0x0                   	// #0
 3ac:	54000040 	b.eq	3b4 <_ZZN3eve6detail3mapIRKNS_5abs_tINS_7optionsIN3rbr8settingsIJEEEEEEEJRKNS_10arm_abi_v04wideIdNS_5fixedILl2EEEEEEEENS0_11wide_resultIT_JDpT0_EE4typeEOSJ_DpOSK_ENKUlDpT_E_clIJSt17integral_constantImLm0EESV_ImLm1EEEEEDaSS_+0x3b4>  // b.none
 3b0:	94000000 	bl	0 <__stack_chk_fail>
 3b4:	fd4033e8 	ldr	d8, [sp, #96]
 3b8:	a94153f3 	ldp	x19, x20, [sp, #16]
 3bc:	a9425bf5 	ldp	x21, x22, [sp, #32]
 3c0:	a94363f7 	ldp	x23, x24, [sp, #48]
 3c4:	a9446bf9 	ldp	x25, x26, [sp, #64]
 3c8:	a94573fb 	ldp	x27, x28, [sp, #80]
 3cc:	a9407bfd 	ldp	x29, x30, [sp]
 3d0:	910983ff 	add	sp, sp, #0x260
 3d4:	d65f03c0 	ret

Disassembly of section .text._ZZN3eve6detail5applyILm2EZNS0_3mapIRKNS_5abs_tINS_7optionsIN3rbr8settingsIJEEEEEEEJRKNS_10arm_abi_v04wideIlNS_5fixedILl2EEEEEEEENS0_11wide_resultIT_JDpT0_EE4typeEOSK_DpOSL_EUlDpT_E_EEDcOT0_ENKUlRKSt16integer_sequenceImJXspT_EEEE_clIJLm0ELm1EEEEDaS10_:

0000000000000000 <_ZZN3eve6detail5applyILm2EZNS0_3mapIRKNS_5abs_tINS_7optionsIN3rbr8settingsIJEEEEEEEJRKNS_10arm_abi_v04wideIlNS_5fixedILl2EEEEEEEENS0_11wide_resultIT_JDpT0_EE4typeEOSK_DpOSL_EUlDpT_E_EEDcOT0_ENKUlRKSt16integer_sequenceImJXspT_EEEE_clIJLm0ELm1EEEEDaS10_>:
   0:	a9be7bfd 	stp	x29, x30, [sp, #-32]!
   4:	910003fd 	mov	x29, sp
   8:	f9000fe0 	str	x0, [sp, #24]
   c:	f9000be1 	str	x1, [sp, #16]
  10:	f9400fe0 	ldr	x0, [sp, #24]
  14:	f9400000 	ldr	x0, [x0]
  18:	2a0303e1 	mov	w1, w3
  1c:	94000000 	bl	0 <_ZZN3eve6detail5applyILm2EZNS0_3mapIRKNS_5abs_tINS_7optionsIN3rbr8settingsIJEEEEEEEJRKNS_10arm_abi_v04wideIlNS_5fixedILl2EEEEEEEENS0_11wide_resultIT_JDpT0_EE4typeEOSK_DpOSL_EUlDpT_E_EEDcOT0_ENKUlRKSt16integer_sequenceImJXspT_EEEE_clIJLm0ELm1EEEEDaS10_>
  20:	a8c27bfd 	ldp	x29, x30, [sp], #32
  24:	d65f03c0 	ret

Disassembly of section .text._ZZN3eve6detail3mapIRKNS_5abs_tINS_7optionsIN3rbr8settingsIJEEEEEEEJRKNS_10arm_abi_v04wideIlNS_5fixedILl2EEEEEEEENS0_11wide_resultIT_JDpT0_EE4typeEOSJ_DpOSK_ENKUlDpT_E_clIJSt17integral_constantImLm0EESV_ImLm1EEEEEDaSS_:

0000000000000000 <_ZZN3eve6detail3mapIRKNS_5abs_tINS_7optionsIN3rbr8settingsIJEEEEEEEJRKNS_10arm_abi_v04wideIlNS_5fixedILl2EEEEEEEENS0_11wide_resultIT_JDpT0_EE4typeEOSJ_DpOSK_ENKUlDpT_E_clIJSt17integral_constantImLm0EESV_ImLm1EEEEEDaSS_>:
   0:	d10943ff 	sub	sp, sp, #0x250
   4:	a9007bfd 	stp	x29, x30, [sp]
   8:	910003fd 	mov	x29, sp
   c:	a90153f3 	stp	x19, x20, [sp, #16]
  10:	a9025bf5 	stp	x21, x22, [sp, #32]
  14:	a90363f7 	stp	x23, x24, [sp, #48]
  18:	a9046bf9 	stp	x25, x26, [sp, #64]
  1c:	a90573fb 	stp	x27, x28, [sp, #80]
  20:	f9003fe0 	str	x0, [sp, #120]
  24:	3901c3e1 	strb	w1, [sp, #112]
  28:	3901a3e2 	strb	w2, [sp, #104]
  2c:	90000000 	adrp	x0, 0 <__stack_chk_guard>
  30:	f9400000 	ldr	x0, [x0]
  34:	f9400001 	ldr	x1, [x0]
  38:	f90127e1 	str	x1, [sp, #584]
  3c:	d2800001 	mov	x1, #0x0                   	// #0
  40:	f9403fe0 	ldr	x0, [sp, #120]
  44:	f9400001 	ldr	x1, [x0]
  48:	f9403fe0 	ldr	x0, [sp, #120]
  4c:	f9400400 	ldr	x0, [x0, #8]
  50:	f900bbe1 	str	x1, [sp, #368]
  54:	390203e3 	strb	w3, [sp, #128]
  58:	f900bfe0 	str	x0, [sp, #376]
  5c:	910203e0 	add	x0, sp, #0x80
  60:	94000000 	bl	0 <_ZZN3eve6detail3mapIRKNS_5abs_tINS_7optionsIN3rbr8settingsIJEEEEEEEJRKNS_10arm_abi_v04wideIlNS_5fixedILl2EEEEEEEENS0_11wide_resultIT_JDpT0_EE4typeEOSJ_DpOSK_ENKUlDpT_E_clIJSt17integral_constantImLm0EESV_ImLm1EEEEEDaSS_>
  64:	aa0003e1 	mov	x1, x0
  68:	f940bfe0 	ldr	x0, [sp, #376]
  6c:	f900c3e0 	str	x0, [sp, #384]
  70:	f900c7e1 	str	x1, [sp, #392]
  74:	f940c3e0 	ldr	x0, [sp, #384]
  78:	f900cbe0 	str	x0, [sp, #400]
  7c:	f940c7e0 	ldr	x0, [sp, #392]
  80:	f900cfe0 	str	x0, [sp, #408]
  84:	f940cbe0 	ldr	x0, [sp, #400]
  88:	f900d3e0 	str	x0, [sp, #416]
  8c:	f940cfe0 	ldr	x0, [sp, #408]
  90:	f900d7e0 	str	x0, [sp, #424]
  94:	f940d3e0 	ldr	x0, [sp, #416]
  98:	f900dbe0 	str	x0, [sp, #432]
  9c:	f940dbe0 	ldr	x0, [sp, #432]
  a0:	3dc00000 	ldr	q0, [x0]
  a4:	3d808be0 	str	q0, [sp, #544]
  a8:	910803e0 	add	x0, sp, #0x200
  ac:	a9420400 	ldp	x0, x1, [x0, #32]
  b0:	910803e2 	add	x2, sp, #0x200
  b4:	a9038440 	stp	x0, x1, [x2, #56]
  b8:	f940d7e0 	ldr	x0, [sp, #424]
  bc:	d37df000 	lsl	x0, x0, #3
  c0:	9108e3e1 	add	x1, sp, #0x238
  c4:	f8606820 	ldr	x0, [x1, x0]
  c8:	d503201f 	nop
  cc:	d503201f 	nop
  d0:	f940bbe1 	ldr	x1, [sp, #368]
  d4:	f900dfe1 	str	x1, [sp, #440]
  d8:	f900e3e0 	str	x0, [sp, #448]
  dc:	f940dff3 	ldr	x19, [sp, #440]
  e0:	f940dfe0 	ldr	x0, [sp, #440]
  e4:	f900e7e0 	str	x0, [sp, #456]
  e8:	f940e7e0 	ldr	x0, [sp, #456]
  ec:	910883e1 	add	x1, sp, #0x220
  f0:	39400002 	ldrb	w2, [x0]
  f4:	39419be0 	ldrb	w0, [sp, #102]
  f8:	94000000 	bl	0 <_ZZN3eve6detail3mapIRKNS_5abs_tINS_7optionsIN3rbr8settingsIJEEEEEEEJRKNS_10arm_abi_v04wideIlNS_5fixedILl2EEEEEEEENS0_11wide_resultIT_JDpT0_EE4typeEOSJ_DpOSK_ENKUlDpT_E_clIJSt17integral_constantImLm0EESV_ImLm1EEEEEDaSS_>
  fc:	14000002 	b	104 <_ZZN3eve6detail3mapIRKNS_5abs_tINS_7optionsIN3rbr8settingsIJEEEEEEEJRKNS_10arm_abi_v04wideIlNS_5fixedILl2EEEEEEEENS0_11wide_resultIT_JDpT0_EE4typeEOSJ_DpOSK_ENKUlDpT_E_clIJSt17integral_constantImLm0EESV_ImLm1EEEEEDaSS_+0x104>
 100:	94000000 	bl	0 <std::terminate()>
 104:	f900ebf3 	str	x19, [sp, #464]
 108:	390223fc 	strb	w28, [sp, #136]
 10c:	f940e3e0 	ldr	x0, [sp, #448]
 110:	f900efe0 	str	x0, [sp, #472]
 114:	52800020 	mov	w0, #0x1                   	// #1
 118:	3902a7e0 	strb	w0, [sp, #169]
 11c:	f940ebe0 	ldr	x0, [sp, #464]
 120:	f900f3e0 	str	x0, [sp, #480]
 124:	390243fb 	strb	w27, [sp, #144]
 128:	910843e0 	add	x0, sp, #0x210
 12c:	f900f7e0 	str	x0, [sp, #488]
 130:	f940efe0 	ldr	x0, [sp, #472]
 134:	f900fbe0 	str	x0, [sp, #496]
 138:	52800020 	mov	w0, #0x1                   	// #1
 13c:	3902abe0 	strb	w0, [sp, #170]
 140:	52800020 	mov	w0, #0x1                   	// #1
 144:	3902afe0 	strb	w0, [sp, #171]
 148:	f940f3e0 	ldr	x0, [sp, #480]
 14c:	f900ffe0 	str	x0, [sp, #504]
 150:	390263fa 	strb	w26, [sp, #152]
 154:	f940f7e0 	ldr	x0, [sp, #488]
 158:	f90103e0 	str	x0, [sp, #512]
 15c:	f940fbe0 	ldr	x0, [sp, #496]
 160:	f90113e0 	str	x0, [sp, #544]
 164:	52800020 	mov	w0, #0x1                   	// #1
 168:	3902b3e0 	strb	w0, [sp, #172]
 16c:	52800020 	mov	w0, #0x1                   	// #1
 170:	3902b7e0 	strb	w0, [sp, #173]
 174:	3902bbff 	strb	wzr, [sp, #174]
 178:	3902bfff 	strb	wzr, [sp, #175]
 17c:	390283f4 	strb	w20, [sp, #160]
 180:	f94103e0 	ldr	x0, [sp, #512]
 184:	f90107e0 	str	x0, [sp, #520]
 188:	910883e1 	add	x1, sp, #0x220
 18c:	910283e0 	add	x0, sp, #0xa0
 190:	aa0103e3 	mov	x3, x1
 194:	f94107e2 	ldr	x2, [sp, #520]
 198:	aa0003e1 	mov	x1, x0
 19c:	90000000 	adrp	x0, 0 <_ZZN3eve6detail3mapIRKNS_5abs_tINS_7optionsIN3rbr8settingsIJEEEEEEEJRKNS_10arm_abi_v04wideIlNS_5fixedILl2EEEEEEEENS0_11wide_resultIT_JDpT0_EE4typeEOSJ_DpOSK_ENKUlDpT_E_clIJSt17integral_constantImLm0EESV_ImLm1EEEEEDaSS_>
 1a0:	91000000 	add	x0, x0, #0x0
 1a4:	94000000 	bl	0 <_ZZN3eve6detail3mapIRKNS_5abs_tINS_7optionsIN3rbr8settingsIJEEEEEEEJRKNS_10arm_abi_v04wideIlNS_5fixedILl2EEEEEEEENS0_11wide_resultIT_JDpT0_EE4typeEOSJ_DpOSK_ENKUlDpT_E_clIJSt17integral_constantImLm0EESV_ImLm1EEEEEDaSS_>
 1a8:	aa0003f4 	mov	x20, x0
 1ac:	d503201f 	nop
 1b0:	d503201f 	nop
 1b4:	d503201f 	nop
 1b8:	d503201f 	nop
 1bc:	d503201f 	nop
 1c0:	f9403fe0 	ldr	x0, [sp, #120]
 1c4:	f9400001 	ldr	x1, [x0]
 1c8:	f9403fe0 	ldr	x0, [sp, #120]
 1cc:	f9400400 	ldr	x0, [x0, #8]
 1d0:	f9006be1 	str	x1, [sp, #208]
 1d4:	390203f9 	strb	w25, [sp, #128]
 1d8:	f9006fe0 	str	x0, [sp, #216]
 1dc:	910203e0 	add	x0, sp, #0x80
 1e0:	94000000 	bl	0 <_ZZN3eve6detail3mapIRKNS_5abs_tINS_7optionsIN3rbr8settingsIJEEEEEEEJRKNS_10arm_abi_v04wideIlNS_5fixedILl2EEEEEEEENS0_11wide_resultIT_JDpT0_EE4typeEOSJ_DpOSK_ENKUlDpT_E_clIJSt17integral_constantImLm0EESV_ImLm1EEEEEDaSS_>
 1e4:	aa0003e1 	mov	x1, x0
 1e8:	f9406fe0 	ldr	x0, [sp, #216]
 1ec:	f90073e0 	str	x0, [sp, #224]
 1f0:	f90077e1 	str	x1, [sp, #232]
 1f4:	f94073e0 	ldr	x0, [sp, #224]
 1f8:	f9007be0 	str	x0, [sp, #240]
 1fc:	f94077e0 	ldr	x0, [sp, #232]
 200:	f9007fe0 	str	x0, [sp, #248]
 204:	f9407be0 	ldr	x0, [sp, #240]
 208:	f90083e0 	str	x0, [sp, #256]
 20c:	f9407fe0 	ldr	x0, [sp, #248]
 210:	f90087e0 	str	x0, [sp, #264]
 214:	f94083e0 	ldr	x0, [sp, #256]
 218:	f9008be0 	str	x0, [sp, #272]
 21c:	f9408be0 	ldr	x0, [sp, #272]
 220:	3dc00000 	ldr	q0, [x0]
 224:	3d808be0 	str	q0, [sp, #544]
 228:	910803e0 	add	x0, sp, #0x200
 22c:	a9420400 	ldp	x0, x1, [x0, #32]
 230:	910803e2 	add	x2, sp, #0x200
 234:	a9038440 	stp	x0, x1, [x2, #56]
 238:	f94087e0 	ldr	x0, [sp, #264]
 23c:	d37df000 	lsl	x0, x0, #3
 240:	9108e3e1 	add	x1, sp, #0x238
 244:	f8606820 	ldr	x0, [x1, x0]
 248:	d503201f 	nop
 24c:	d503201f 	nop
 250:	f9406be1 	ldr	x1, [sp, #208]
 254:	f9008fe1 	str	x1, [sp, #280]
 258:	f90093e0 	str	x0, [sp, #288]
 25c:	f9408ff3 	ldr	x19, [sp, #280]
 260:	f9408fe0 	ldr	x0, [sp, #280]
 264:	f90097e0 	str	x0, [sp, #296]
 268:	f94097e0 	ldr	x0, [sp, #296]
 26c:	910883e1 	add	x1, sp, #0x220
 270:	39400002 	ldrb	w2, [x0]
 274:	39419fe0 	ldrb	w0, [sp, #103]
 278:	94000000 	bl	0 <_ZZN3eve6detail3mapIRKNS_5abs_tINS_7optionsIN3rbr8settingsIJEEEEEEEJRKNS_10arm_abi_v04wideIlNS_5fixedILl2EEEEEEEENS0_11wide_resultIT_JDpT0_EE4typeEOSJ_DpOSK_ENKUlDpT_E_clIJSt17integral_constantImLm0EESV_ImLm1EEEEEDaSS_>
 27c:	14000002 	b	284 <_ZZN3eve6detail3mapIRKNS_5abs_tINS_7optionsIN3rbr8settingsIJEEEEEEEJRKNS_10arm_abi_v04wideIlNS_5fixedILl2EEEEEEEENS0_11wide_resultIT_JDpT0_EE4typeEOSJ_DpOSK_ENKUlDpT_E_clIJSt17integral_constantImLm0EESV_ImLm1EEEEEDaSS_+0x284>
 280:	94000000 	bl	0 <std::terminate()>
 284:	f9009bf3 	str	x19, [sp, #304]
 288:	390223f8 	strb	w24, [sp, #136]
 28c:	f94093e0 	ldr	x0, [sp, #288]
 290:	f9009fe0 	str	x0, [sp, #312]
 294:	52800020 	mov	w0, #0x1                   	// #1
 298:	39028be0 	strb	w0, [sp, #162]
 29c:	f9409be0 	ldr	x0, [sp, #304]
 2a0:	f900a3e0 	str	x0, [sp, #320]
 2a4:	390243f7 	strb	w23, [sp, #144]
 2a8:	910843e0 	add	x0, sp, #0x210
 2ac:	f900a7e0 	str	x0, [sp, #328]
 2b0:	f9409fe0 	ldr	x0, [sp, #312]
 2b4:	f900abe0 	str	x0, [sp, #336]
 2b8:	52800020 	mov	w0, #0x1                   	// #1
 2bc:	39028fe0 	strb	w0, [sp, #163]
 2c0:	52800020 	mov	w0, #0x1                   	// #1
 2c4:	390293e0 	strb	w0, [sp, #164]
 2c8:	f940a3e0 	ldr	x0, [sp, #320]
 2cc:	f900afe0 	str	x0, [sp, #344]
 2d0:	390263f6 	strb	w22, [sp, #152]
 2d4:	f940a7e0 	ldr	x0, [sp, #328]
 2d8:	f900b3e0 	str	x0, [sp, #352]
 2dc:	f940abe0 	ldr	x0, [sp, #336]
 2e0:	f90113e0 	str	x0, [sp, #544]
 2e4:	52800020 	mov	w0, #0x1                   	// #1
 2e8:	390297e0 	strb	w0, [sp, #165]
 2ec:	52800020 	mov	w0, #0x1                   	// #1
 2f0:	39029be0 	strb	w0, [sp, #166]
 2f4:	39029fff 	strb	wzr, [sp, #167]
 2f8:	3902a3ff 	strb	wzr, [sp, #168]
 2fc:	390283f5 	strb	w21, [sp, #160]
 300:	f940b3e0 	ldr	x0, [sp, #352]
 304:	f900b7e0 	str	x0, [sp, #360]
 308:	910883e1 	add	x1, sp, #0x220
 30c:	910283e0 	add	x0, sp, #0xa0
 310:	aa0103e3 	mov	x3, x1
 314:	f940b7e2 	ldr	x2, [sp, #360]
 318:	aa0003e1 	mov	x1, x0
 31c:	90000000 	adrp	x0, 0 <_ZZN3eve6detail3mapIRKNS_5abs_tINS_7optionsIN3rbr8settingsIJEEEEEEEJRKNS_10arm_abi_v04wideIlNS_5fixedILl2EEEEEEEENS0_11wide_resultIT_JDpT0_EE4typeEOSJ_DpOSK_ENKUlDpT_E_clIJSt17integral_constantImLm0EESV_ImLm1EEEEEDaSS_>
 320:	91000000 	add	x0, x0, #0x0
 324:	94000000 	bl	0 <_ZZN3eve6detail3mapIRKNS_5abs_tINS_7optionsIN3rbr8settingsIJEEEEEEEJRKNS_10arm_abi_v04wideIlNS_5fixedILl2EEEEEEEENS0_11wide_resultIT_JDpT0_EE4typeEOSJ_DpOSK_ENKUlDpT_E_clIJSt17integral_constantImLm0EESV_ImLm1EEEEEDaSS_>
 328:	d503201f 	nop
 32c:	d503201f 	nop
 330:	d503201f 	nop
 334:	d503201f 	nop
 338:	d503201f 	nop
 33c:	f9005bf4 	str	x20, [sp, #176]
 340:	f9005fe0 	str	x0, [sp, #184]
 344:	910843f3 	add	x19, sp, #0x210
 348:	910283e0 	add	x0, sp, #0xa0
 34c:	94000000 	bl	0 <_ZZN3eve6detail3mapIRKNS_5abs_tINS_7optionsIN3rbr8settingsIJEEEEEEEJRKNS_10arm_abi_v04wideIlNS_5fixedILl2EEEEEEEENS0_11wide_resultIT_JDpT0_EE4typeEOSJ_DpOSK_ENKUlDpT_E_clIJSt17integral_constantImLm0EESV_ImLm1EEEEEDaSS_>
 350:	f9405be0 	ldr	x0, [sp, #176]
 354:	f90063e0 	str	x0, [sp, #192]
 358:	f9405fe0 	ldr	x0, [sp, #184]
 35c:	f90067e0 	str	x0, [sp, #200]
 360:	910883e0 	add	x0, sp, #0x220
 364:	f94067e2 	ldr	x2, [sp, #200]
 368:	f94063e1 	ldr	x1, [sp, #192]
 36c:	94000000 	bl	0 <_ZZN3eve6detail3mapIRKNS_5abs_tINS_7optionsIN3rbr8settingsIJEEEEEEEJRKNS_10arm_abi_v04wideIlNS_5fixedILl2EEEEEEEENS0_11wide_resultIT_JDpT0_EE4typeEOSJ_DpOSK_ENKUlDpT_E_clIJSt17integral_constantImLm0EESV_ImLm1EEEEEDaSS_>
 370:	d503201f 	nop
 374:	3d808be0 	str	q0, [sp, #544]
 378:	910883e0 	add	x0, sp, #0x220
 37c:	aa0003e1 	mov	x1, x0
 380:	aa1303e0 	mov	x0, x19
 384:	94000000 	bl	0 <_ZZN3eve6detail3mapIRKNS_5abs_tINS_7optionsIN3rbr8settingsIJEEEEEEEJRKNS_10arm_abi_v04wideIlNS_5fixedILl2EEEEEEEENS0_11wide_resultIT_JDpT0_EE4typeEOSJ_DpOSK_ENKUlDpT_E_clIJSt17integral_constantImLm0EESV_ImLm1EEEEEDaSS_>
 388:	d503201f 	nop
 38c:	3dc087e0 	ldr	q0, [sp, #528]
 390:	90000000 	adrp	x0, 0 <__stack_chk_guard>
 394:	f9400000 	ldr	x0, [x0]
 398:	f94127e2 	ldr	x2, [sp, #584]
 39c:	f9400001 	ldr	x1, [x0]
 3a0:	eb010042 	subs	x2, x2, x1
 3a4:	d2800001 	mov	x1, #0x0                   	// #0
 3a8:	54000040 	b.eq	3b0 <_ZZN3eve6detail3mapIRKNS_5abs_tINS_7optionsIN3rbr8settingsIJEEEEEEEJRKNS_10arm_abi_v04wideIlNS_5fixedILl2EEEEEEEENS0_11wide_resultIT_JDpT0_EE4typeEOSJ_DpOSK_ENKUlDpT_E_clIJSt17integral_constantImLm0EESV_ImLm1EEEEEDaSS_+0x3b0>  // b.none
 3ac:	94000000 	bl	0 <__stack_chk_fail>
 3b0:	a94153f3 	ldp	x19, x20, [sp, #16]
 3b4:	a9425bf5 	ldp	x21, x22, [sp, #32]
 3b8:	a94363f7 	ldp	x23, x24, [sp, #48]
 3bc:	a9446bf9 	ldp	x25, x26, [sp, #64]
 3c0:	a94573fb 	ldp	x27, x28, [sp, #80]
 3c4:	a9407bfd 	ldp	x29, x30, [sp]
 3c8:	910943ff 	add	sp, sp, #0x250
 3cc:	d65f03c0 	ret

Disassembly of section .text._ZN3eve6detail12wide_storageI13__Float32x4_tEC2ERKDv4_f:

0000000000000000 <eve::detail::wide_storage<__Float32x4_t>::wide_storage(float __vector(4) const&)>:
   0:	d10043ff 	sub	sp, sp, #0x10
   4:	f90007e0 	str	x0, [sp, #8]
   8:	f90003e1 	str	x1, [sp]
   c:	f94003e0 	ldr	x0, [sp]
  10:	3dc00000 	ldr	q0, [x0]
  14:	f94007e0 	ldr	x0, [sp, #8]
  18:	3d800000 	str	q0, [x0]
  1c:	d503201f 	nop
  20:	910043ff 	add	sp, sp, #0x10
  24:	d65f03c0 	ret

Disassembly of section .text._ZNKSt17integral_constantImLm0EEcvmEv:

0000000000000000 <std::integral_constant<unsigned long, 0ul>::operator unsigned long() const>:
   0:	d10043ff 	sub	sp, sp, #0x10
   4:	f90007e0 	str	x0, [sp, #8]
   8:	d2800000 	mov	x0, #0x0                   	// #0
   c:	910043ff 	add	sp, sp, #0x10
  10:	d65f03c0 	ret

Disassembly of section .text._ZNKSt17integral_constantImLm1EEcvmEv:

0000000000000000 <std::integral_constant<unsigned long, 1ul>::operator unsigned long() const>:
   0:	d10043ff 	sub	sp, sp, #0x10
   4:	f90007e0 	str	x0, [sp, #8]
   8:	d2800020 	mov	x0, #0x1                   	// #1
   c:	910043ff 	add	sp, sp, #0x10
  10:	d65f03c0 	ret

Disassembly of section .text._ZNK3eve6detail10neon_makerIdNS_5fixedILl2EEEEclIJddEEEDaDpT_:

0000000000000000 <auto eve::detail::neon_maker<double, eve::fixed<2l> >::operator()<double, double>(double, double) const>:
   0:	d100c3ff 	sub	sp, sp, #0x30
   4:	f9000fe0 	str	x0, [sp, #24]
   8:	fd000be0 	str	d0, [sp, #16]
   c:	fd0007e1 	str	d1, [sp, #8]
  10:	6f00e400 	movi	v0.2d, #0x0
  14:	3d800be0 	str	q0, [sp, #32]
  18:	fd400be0 	ldr	d0, [sp, #16]
  1c:	fd4007e1 	ldr	d1, [sp, #8]
  20:	6e180420 	mov	v0.d[1], v1.d[0]
  24:	3d800be0 	str	q0, [sp, #32]
  28:	3dc00be0 	ldr	q0, [sp, #32]
  2c:	9100c3ff 	add	sp, sp, #0x30
  30:	d65f03c0 	ret

Disassembly of section .text._ZNK3eve6detail10neon_makerIlNS_5fixedILl2EEEEclIJllEEEDaDpT_:

0000000000000000 <auto eve::detail::neon_maker<long, eve::fixed<2l> >::operator()<long, long>(long, long) const>:
   0:	d100c3ff 	sub	sp, sp, #0x30
   4:	f9000fe0 	str	x0, [sp, #24]
   8:	f9000be1 	str	x1, [sp, #16]
   c:	f90007e2 	str	x2, [sp, #8]
  10:	4f000400 	movi	v0.4s, #0x0
  14:	3d800be0 	str	q0, [sp, #32]
  18:	fd400be0 	ldr	d0, [sp, #16]
  1c:	fd4007e1 	ldr	d1, [sp, #8]
  20:	6e180420 	mov	v0.d[1], v1.d[0]
  24:	3d800be0 	str	q0, [sp, #32]
  28:	3dc00be0 	ldr	q0, [sp, #32]
  2c:	9100c3ff 	add	sp, sp, #0x30
  30:	d65f03c0 	ret

Disassembly of section .text._ZN3eve6detail12wide_storageI11__Int32x4_tEC2ERKDv4_i:

0000000000000000 <eve::detail::wide_storage<__Int32x4_t>::wide_storage(int __vector(4) const&)>:
   0:	d10043ff 	sub	sp, sp, #0x10
   4:	f90007e0 	str	x0, [sp, #8]
   8:	f90003e1 	str	x1, [sp]
   c:	f94003e0 	ldr	x0, [sp]
  10:	3dc00000 	ldr	q0, [x0]
  14:	f94007e0 	ldr	x0, [sp, #8]
  18:	3d800000 	str	q0, [x0]
  1c:	d503201f 	nop
  20:	910043ff 	add	sp, sp, #0x10
  24:	d65f03c0 	ret

Disassembly of section .text._ZN3eve6detail12wide_storageI11__Int16x8_tEC2ERKDv8_s:

0000000000000000 <eve::detail::wide_storage<__Int16x8_t>::wide_storage(short __vector(8) const&)>:
   0:	d10043ff 	sub	sp, sp, #0x10
   4:	f90007e0 	str	x0, [sp, #8]
   8:	f90003e1 	str	x1, [sp]
   c:	f94003e0 	ldr	x0, [sp]
  10:	3dc00000 	ldr	q0, [x0]
  14:	f94007e0 	ldr	x0, [sp, #8]
  18:	3d800000 	str	q0, [x0]
  1c:	d503201f 	nop
  20:	910043ff 	add	sp, sp, #0x10
  24:	d65f03c0 	ret

Disassembly of section .text._ZN3eve6detail12wide_storageI11__Int8x16_tEC2ERKDv16_a:

0000000000000000 <eve::detail::wide_storage<__Int8x16_t>::wide_storage(signed char __vector(16) const&)>:
   0:	d10043ff 	sub	sp, sp, #0x10
   4:	f90007e0 	str	x0, [sp, #8]
   8:	f90003e1 	str	x1, [sp]
   c:	f94003e0 	ldr	x0, [sp]
  10:	3dc00000 	ldr	q0, [x0]
  14:	f94007e0 	ldr	x0, [sp, #8]
  18:	3d800000 	str	q0, [x0]
  1c:	d503201f 	nop
  20:	910043ff 	add	sp, sp, #0x10
  24:	d65f03c0 	ret

Disassembly of section .text._ZN3eve2asINS_10arm_abi_v04wideIdNS_5fixedILl2EEEEEEC2Ev:

0000000000000000 <eve::as<eve::arm_abi_v0::wide<double, eve::fixed<2l> > >::as()>:
   0:	d10043ff 	sub	sp, sp, #0x10
   4:	f90007e0 	str	x0, [sp, #8]
   8:	d503201f 	nop
   c:	910043ff 	add	sp, sp, #0x10
  10:	d65f03c0 	ret

Disassembly of section .text._ZN3eve6detail12wide_storageI13__Float64x2_tEC2ERKDv2_d:

0000000000000000 <eve::detail::wide_storage<__Float64x2_t>::wide_storage(double __vector(2) const&)>:
   0:	d10043ff 	sub	sp, sp, #0x10
   4:	f90007e0 	str	x0, [sp, #8]
   8:	f90003e1 	str	x1, [sp]
   c:	f94003e0 	ldr	x0, [sp]
  10:	3dc00000 	ldr	q0, [x0]
  14:	f94007e0 	ldr	x0, [sp, #8]
  18:	3d800000 	str	q0, [x0]
  1c:	d503201f 	nop
  20:	910043ff 	add	sp, sp, #0x10
  24:	d65f03c0 	ret

Disassembly of section .text._ZN3eve2asINS_10arm_abi_v04wideIlNS_5fixedILl2EEEEEEC2Ev:

0000000000000000 <eve::as<eve::arm_abi_v0::wide<long, eve::fixed<2l> > >::as()>:
   0:	d10043ff 	sub	sp, sp, #0x10
   4:	f90007e0 	str	x0, [sp, #8]
   8:	d503201f 	nop
   c:	910043ff 	add	sp, sp, #0x10
  10:	d65f03c0 	ret

Disassembly of section .text._ZN3eve6detail12wide_storageI11__Int64x2_tEC2ERKDv2_l:

0000000000000000 <eve::detail::wide_storage<__Int64x2_t>::wide_storage(long __vector(2) const&)>:
   0:	d10043ff 	sub	sp, sp, #0x10
   4:	f90007e0 	str	x0, [sp, #8]
   8:	f90003e1 	str	x1, [sp]
   c:	f94003e0 	ldr	x0, [sp]
  10:	3dc00000 	ldr	q0, [x0]
  14:	f94007e0 	ldr	x0, [sp, #8]
  18:	3d800000 	str	q0, [x0]
  1c:	d503201f 	nop
  20:	910043ff 	add	sp, sp, #0x10
  24:	d65f03c0 	ret

Disassembly of section .text._ZN3eve6detail4abs_IdNS_7optionsIN3rbr8settingsIJNS3_6optionINS0_15condition_key_tENS_12ignore_none_EEEEEEEEEET_RKNS0_12adl_helper_tERKNS_4cpu_ERKT0_RKSB_:

0000000000000000 <double eve::detail::abs_<double, eve::options<rbr::settings<rbr::option<eve::detail::condition_key_t, eve::ignore_none_> > > >(eve::detail::adl_helper_t const&, eve::cpu_ const&, eve::options<rbr::settings<rbr::option<eve::detail::condition_key_t, eve::ignore_none_> > > const&, double const&)>:
   0:	a9b47bfd 	stp	x29, x30, [sp, #-192]!
   4:	910003fd 	mov	x29, sp
   8:	a90153f3 	stp	x19, x20, [sp, #16]
   c:	a9025bf5 	stp	x21, x22, [sp, #32]
  10:	f9001bf7 	str	x23, [sp, #48]
  14:	fd001fe8 	str	d8, [sp, #56]
  18:	f9002fe0 	str	x0, [sp, #88]
  1c:	f9002be1 	str	x1, [sp, #80]
  20:	f90027e2 	str	x2, [sp, #72]
  24:	f90023e3 	str	x3, [sp, #64]
  28:	90000000 	adrp	x0, 0 <__stack_chk_guard>
  2c:	f9400000 	ldr	x0, [x0]
  30:	f9400001 	ldr	x1, [x0]
  34:	f9005fe1 	str	x1, [sp, #184]
  38:	d2800001 	mov	x1, #0x0                   	// #0
  3c:	f94023e0 	ldr	x0, [sp, #64]
  40:	fd400008 	ldr	d8, [x0]
  44:	910183e0 	add	x0, sp, #0x60
  48:	f94023e1 	ldr	x1, [sp, #64]
  4c:	94000000 	bl	0 <double eve::detail::abs_<double, eve::options<rbr::settings<rbr::option<eve::detail::condition_key_t, eve::ignore_none_> > > >(eve::detail::adl_helper_t const&, eve::cpu_ const&, eve::options<rbr::settings<rbr::option<eve::detail::condition_key_t, eve::ignore_none_> > > const&, double const&)>
  50:	90000000 	adrp	x0, 0 <double eve::detail::abs_<double, eve::options<rbr::settings<rbr::option<eve::detail::condition_key_t, eve::ignore_none_> > > >(eve::detail::adl_helper_t const&, eve::cpu_ const&, eve::options<rbr::settings<rbr::option<eve::detail::condition_key_t, eve::ignore_none_> > > const&, double const&)>
  54:	91000013 	add	x19, x0, #0x0
  58:	90000000 	adrp	x0, 0 <double eve::detail::abs_<double, eve::options<rbr::settings<rbr::option<eve::detail::condition_key_t, eve::ignore_none_> > > >(eve::detail::adl_helper_t const&, eve::cpu_ const&, eve::options<rbr::settings<rbr::option<eve::detail::condition_key_t, eve::ignore_none_> > > const&, double const&)>
  5c:	91000000 	add	x0, x0, #0x0
  60:	f90047e0 	str	x0, [sp, #136]
  64:	f94047e0 	ldr	x0, [sp, #136]
  68:	9101e3e1 	add	x1, sp, #0x78
  6c:	39400002 	ldrb	w2, [x0]
  70:	2a1703e0 	mov	w0, w23
  74:	94000000 	bl	0 <double eve::detail::abs_<double, eve::options<rbr::settings<rbr::option<eve::detail::condition_key_t, eve::ignore_none_> > > >(eve::detail::adl_helper_t const&, eve::cpu_ const&, eve::options<rbr::settings<rbr::option<eve::detail::condition_key_t, eve::ignore_none_> > > const&, double const&)>
  78:	14000002 	b	80 <double eve::detail::abs_<double, eve::options<rbr::settings<rbr::option<eve::detail::condition_key_t, eve::ignore_none_> > > >(eve::detail::adl_helper_t const&, eve::cpu_ const&, eve::options<rbr::settings<rbr::option<eve::detail::condition_key_t, eve::ignore_none_> > > const&, double const&)+0x80>
  7c:	94000000 	bl	0 <std::terminate()>
  80:	f9004bf3 	str	x19, [sp, #144]
  84:	3901c3f4 	strb	w20, [sp, #112]
  88:	910183e0 	add	x0, sp, #0x60
  8c:	f9004fe0 	str	x0, [sp, #152]
  90:	f9404fe0 	ldr	x0, [sp, #152]
  94:	f90053e0 	str	x0, [sp, #160]
  98:	9101e3e0 	add	x0, sp, #0x78
  9c:	f90057e0 	str	x0, [sp, #168]
  a0:	d2f00000 	mov	x0, #0x8000000000000000    	// #-9223372036854775808
  a4:	9e670000 	fmov	d0, x0
  a8:	fd005be0 	str	d0, [sp, #176]
  ac:	fd405be0 	ldr	d0, [sp, #176]
  b0:	d503201f 	nop
  b4:	fd003be8 	str	d8, [sp, #112]
  b8:	fd003fe0 	str	d0, [sp, #120]
  bc:	90000000 	adrp	x0, 0 <double eve::detail::abs_<double, eve::options<rbr::settings<rbr::option<eve::detail::condition_key_t, eve::ignore_none_> > > >(eve::detail::adl_helper_t const&, eve::cpu_ const&, eve::options<rbr::settings<rbr::option<eve::detail::condition_key_t, eve::ignore_none_> > > const&, double const&)>
  c0:	91000013 	add	x19, x0, #0x0
  c4:	90000000 	adrp	x0, 0 <double eve::detail::abs_<double, eve::options<rbr::settings<rbr::option<eve::detail::condition_key_t, eve::ignore_none_> > > >(eve::detail::adl_helper_t const&, eve::cpu_ const&, eve::options<rbr::settings<rbr::option<eve::detail::condition_key_t, eve::ignore_none_> > > const&, double const&)>
  c8:	91000000 	add	x0, x0, #0x0
  cc:	f90043e0 	str	x0, [sp, #128]
  d0:	f94043e0 	ldr	x0, [sp, #128]
  d4:	9101a3e1 	add	x1, sp, #0x68
  d8:	39400002 	ldrb	w2, [x0]
  dc:	2a1603e0 	mov	w0, w22
  e0:	94000000 	bl	0 <double eve::detail::abs_<double, eve::options<rbr::settings<rbr::option<eve::detail::condition_key_t, eve::ignore_none_> > > >(eve::detail::adl_helper_t const&, eve::cpu_ const&, eve::options<rbr::settings<rbr::option<eve::detail::condition_key_t, eve::ignore_none_> > > const&, double const&)>
  e4:	14000002 	b	ec <double eve::detail::abs_<double, eve::options<rbr::settings<rbr::option<eve::detail::condition_key_t, eve::ignore_none_> > > >(eve::detail::adl_helper_t const&, eve::cpu_ const&, eve::options<rbr::settings<rbr::option<eve::detail::condition_key_t, eve::ignore_none_> > > const&, double const&)+0xec>
  e8:	94000000 	bl	0 <std::terminate()>
  ec:	9101e3e2 	add	x2, sp, #0x78
  f0:	9101c3e1 	add	x1, sp, #0x70
  f4:	9101a3e0 	add	x0, sp, #0x68
  f8:	aa0203e4 	mov	x4, x2
  fc:	aa0103e3 	mov	x3, x1
 100:	aa0003e2 	mov	x2, x0
 104:	2a1503e1 	mov	w1, w21
 108:	aa1303e0 	mov	x0, x19
 10c:	94000000 	bl	0 <double eve::detail::abs_<double, eve::options<rbr::settings<rbr::option<eve::detail::condition_key_t, eve::ignore_none_> > > >(eve::detail::adl_helper_t const&, eve::cpu_ const&, eve::options<rbr::settings<rbr::option<eve::detail::condition_key_t, eve::ignore_none_> > > const&, double const&)>
 110:	90000000 	adrp	x0, 0 <__stack_chk_guard>
 114:	f9400000 	ldr	x0, [x0]
 118:	f9405fe2 	ldr	x2, [sp, #184]
 11c:	f9400001 	ldr	x1, [x0]
 120:	eb010042 	subs	x2, x2, x1
 124:	d2800001 	mov	x1, #0x0                   	// #0
 128:	54000040 	b.eq	130 <double eve::detail::abs_<double, eve::options<rbr::settings<rbr::option<eve::detail::condition_key_t, eve::ignore_none_> > > >(eve::detail::adl_helper_t const&, eve::cpu_ const&, eve::options<rbr::settings<rbr::option<eve::detail::condition_key_t, eve::ignore_none_> > > const&, double const&)+0x130>  // b.none
 12c:	94000000 	bl	0 <__stack_chk_fail>
 130:	fd401fe8 	ldr	d8, [sp, #56]
 134:	a94153f3 	ldp	x19, x20, [sp, #16]
 138:	a9425bf5 	ldp	x21, x22, [sp, #32]
 13c:	f9401bf7 	ldr	x23, [sp, #48]
 140:	a8cc7bfd 	ldp	x29, x30, [sp], #192
 144:	d65f03c0 	ret

Disassembly of section .text._ZN3eve6detail4abs_IlNS_7optionsIN3rbr8settingsIJNS3_6optionINS0_15condition_key_tENS_12ignore_none_EEEEEEEEEET_RKNS0_12adl_helper_tERKNS_4cpu_ERKT0_RKSB_:

0000000000000000 <long eve::detail::abs_<long, eve::options<rbr::settings<rbr::option<eve::detail::condition_key_t, eve::ignore_none_> > > >(eve::detail::adl_helper_t const&, eve::cpu_ const&, eve::options<rbr::settings<rbr::option<eve::detail::condition_key_t, eve::ignore_none_> > > const&, long const&)>:
   0:	d10083ff 	sub	sp, sp, #0x20
   4:	f9000fe0 	str	x0, [sp, #24]
   8:	f9000be1 	str	x1, [sp, #16]
   c:	f90007e2 	str	x2, [sp, #8]
  10:	f90003e3 	str	x3, [sp]
  14:	f94003e0 	ldr	x0, [sp]
  18:	f9400000 	ldr	x0, [x0]
  1c:	f100001f 	cmp	x0, #0x0
  20:	da80a400 	cneg	x0, x0, lt  // lt = tstop
  24:	910083ff 	add	sp, sp, #0x20
  28:	d65f03c0 	ret

Disassembly of section .text._ZN3eve2asIdEC2ERKd:

0000000000000000 <eve::as<double>::as(double const&)>:
   0:	d10043ff 	sub	sp, sp, #0x10
   4:	f90007e0 	str	x0, [sp, #8]
   8:	f90003e1 	str	x1, [sp]
   c:	d503201f 	nop
  10:	910043ff 	add	sp, sp, #0x10
  14:	d65f03c0 	ret

Disassembly of section .text._ZZN4kumi9fold_leftIZNK3eve14decorated_withINS1_7optionsIN3rbr8settingsIJEEEEEJNS1_18conditional_optionENS1_15downward_optionENS1_13upward_optionEEE7optionsEvEUlT_RKT0_E_NS_5tupleIJS8_S9_SA_EEES7_EEDaSC_OSD_T1_ENKUlSt16integer_sequenceImJXspT_EEEE_clIJLm0ELm1ELm2EEEEDaSM_:

0000000000000000 <_ZZN4kumi9fold_leftIZNK3eve14decorated_withINS1_7optionsIN3rbr8settingsIJEEEEEJNS1_18conditional_optionENS1_15downward_optionENS1_13upward_optionEEE7optionsEvEUlT_RKT0_E_NS_5tupleIJS8_S9_SA_EEES7_EEDaSC_OSD_T1_ENKUlSt16integer_sequenceImJXspT_EEEE_clIJLm0ELm1ELm2EEEEDaSM_>:
   0:	a9b47bfd 	stp	x29, x30, [sp, #-192]!
   4:	910003fd 	mov	x29, sp
   8:	f9000bf3 	str	x19, [sp, #16]
   c:	f90017e0 	str	x0, [sp, #40]
  10:	390083e1 	strb	w1, [sp, #32]
  14:	90000000 	adrp	x0, 0 <__stack_chk_guard>
  18:	f9400000 	ldr	x0, [x0]
  1c:	f9400001 	ldr	x1, [x0]
  20:	f9005fe1 	str	x1, [sp, #184]
  24:	d2800001 	mov	x1, #0x0                   	// #0
  28:	f94017e0 	ldr	x0, [sp, #40]
  2c:	f9400400 	ldr	x0, [x0, #8]
  30:	f9004be0 	str	x0, [sp, #144]
  34:	f9404be0 	ldr	x0, [sp, #144]
  38:	f9004fe0 	str	x0, [sp, #152]
  3c:	3902a3e4 	strb	w4, [sp, #168]
  40:	f9404fe0 	ldr	x0, [sp, #152]
  44:	f90053e0 	str	x0, [sp, #160]
  48:	d503201f 	nop
  4c:	d503201f 	nop
  50:	f94017e0 	ldr	x0, [sp, #40]
  54:	f9400400 	ldr	x0, [x0, #8]
  58:	f9003fe0 	str	x0, [sp, #120]
  5c:	f9403fe0 	ldr	x0, [sp, #120]
  60:	f90043e0 	str	x0, [sp, #128]
  64:	3902a3e3 	strb	w3, [sp, #168]
  68:	f94043e0 	ldr	x0, [sp, #128]
  6c:	f90047e0 	str	x0, [sp, #136]
  70:	d503201f 	nop
  74:	d503201f 	nop
  78:	f94017e0 	ldr	x0, [sp, #40]
  7c:	f9400400 	ldr	x0, [x0, #8]
  80:	f90033e0 	str	x0, [sp, #96]
  84:	f94033e0 	ldr	x0, [sp, #96]
  88:	f90037e0 	str	x0, [sp, #104]
  8c:	3902a3e2 	strb	w2, [sp, #168]
  90:	f94037e0 	ldr	x0, [sp, #104]
  94:	f9003be0 	str	x0, [sp, #112]
  98:	d503201f 	nop
  9c:	d503201f 	nop
  a0:	f94017e0 	ldr	x0, [sp, #40]
  a4:	f9400800 	ldr	x0, [x0, #16]
  a8:	f9005be0 	str	x0, [sp, #176]
  ac:	9102a3e1 	add	x1, sp, #0xa8
  b0:	910123e0 	add	x0, sp, #0x48
  b4:	94000000 	bl	0 <_ZZN4kumi9fold_leftIZNK3eve14decorated_withINS1_7optionsIN3rbr8settingsIJEEEEEJNS1_18conditional_optionENS1_15downward_optionENS1_13upward_optionEEE7optionsEvEUlT_RKT0_E_NS_5tupleIJS8_S9_SA_EEES7_EEDaSC_OSD_T1_ENKUlSt16integer_sequenceImJXspT_EEEE_clIJLm0ELm1ELm2EEEEDaSM_>
  b8:	910143e1 	add	x1, sp, #0x50
  bc:	910103e0 	add	x0, sp, #0x40
  c0:	94000000 	bl	0 <_ZZN4kumi9fold_leftIZNK3eve14decorated_withINS1_7optionsIN3rbr8settingsIJEEEEEJNS1_18conditional_optionENS1_15downward_optionENS1_13upward_optionEEE7optionsEvEUlT_RKT0_E_NS_5tupleIJS8_S9_SA_EEES7_EEDaSC_OSD_T1_ENKUlSt16integer_sequenceImJXspT_EEEE_clIJLm0ELm1ELm2EEEEDaSM_>
  c4:	910163e1 	add	x1, sp, #0x58
  c8:	9100e3e0 	add	x0, sp, #0x38
  cc:	94000000 	bl	0 <_ZZN4kumi9fold_leftIZNK3eve14decorated_withINS1_7optionsIN3rbr8settingsIJEEEEEJNS1_18conditional_optionENS1_15downward_optionENS1_13upward_optionEEE7optionsEvEUlT_RKT0_E_NS_5tupleIJS8_S9_SA_EEES7_EEDaSC_OSD_T1_ENKUlSt16integer_sequenceImJXspT_EEEE_clIJLm0ELm1ELm2EEEEDaSM_>
  d0:	90000000 	adrp	x0, 0 <__stack_chk_guard>
  d4:	f9400000 	ldr	x0, [x0]
  d8:	f9405fe2 	ldr	x2, [sp, #184]
  dc:	f9400001 	ldr	x1, [x0]
  e0:	eb010042 	subs	x2, x2, x1
  e4:	d2800001 	mov	x1, #0x0                   	// #0
  e8:	54000040 	b.eq	f0 <_ZZN4kumi9fold_leftIZNK3eve14decorated_withINS1_7optionsIN3rbr8settingsIJEEEEEJNS1_18conditional_optionENS1_15downward_optionENS1_13upward_optionEEE7optionsEvEUlT_RKT0_E_NS_5tupleIJS8_S9_SA_EEES7_EEDaSC_OSD_T1_ENKUlSt16integer_sequenceImJXspT_EEEE_clIJLm0ELm1ELm2EEEEDaSM_+0xf0>  // b.none
  ec:	94000000 	bl	0 <__stack_chk_fail>
  f0:	2a1303e0 	mov	w0, w19
  f4:	f9400bf3 	ldr	x19, [sp, #16]
  f8:	a8cc7bfd 	ldp	x29, x30, [sp], #192
  fc:	d65f03c0 	ret

Disassembly of section .text._ZZNK3eve14decorated_withINS_7optionsIN3rbr8settingsIJEEEEEJNS_18conditional_optionENS_15downward_optionENS_13upward_optionEEE7optionsEvENKUlT_RKT0_E_clIS5_S8_EEDaSA_SD_:

0000000000000000 <auto eve::decorated_with<eve::options<rbr::settings<> >, eve::conditional_option, eve::downward_option, eve::upward_option>::options() const::{lambda(auto:1, auto:2 const&)#1}::operator()<eve::options<rbr::settings<> >, eve::upward_option>(eve::options<rbr::settings<> >, eve::upward_option const&) const>:
   0:	d100c3ff 	sub	sp, sp, #0x30
   4:	f9000fe0 	str	x0, [sp, #24]
   8:	390043e1 	strb	w1, [sp, #16]
   c:	f90007e2 	str	x2, [sp, #8]
  10:	f94007e0 	ldr	x0, [sp, #8]
  14:	f90017e0 	str	x0, [sp, #40]
  18:	d503201f 	nop
  1c:	d503201f 	nop
  20:	2a0303e0 	mov	w0, w3
  24:	9100c3ff 	add	sp, sp, #0x30
  28:	d65f03c0 	ret

Disassembly of section .text._ZN4kumi1_rsIRN3eve7optionsIN3rbr8settingsIJEEEEEEEDcONS0_8foldableIZNKS2_14decorated_withIS7_JNS2_18conditional_optionENS2_15downward_optionENS2_13upward_optionEEE7optionsEvEUlT_RKT0_E_SD_EEONS9_ISJ_SF_EE:

0000000000000000 <decltype(auto) kumi::_::operator>><eve::options<rbr::settings<> >&>(kumi::_::foldable<eve::decorated_with<eve::options<rbr::settings<> >, eve::conditional_option, eve::downward_option, eve::upward_option>::options() const::{lambda(auto:1, auto:2 const&)#1}, eve::upward_option>&&, kumi::_::foldable<eve::decorated_with<eve::options<rbr::settings<> >, eve::conditional_option, eve::downward_option, eve::upward_option>::options() const::{lambda(auto:1, auto:2 const&)#1}, eve::options<rbr::settings<> >&>&&)>:
   0:	a9bd7bfd 	stp	x29, x30, [sp, #-48]!
   4:	910003fd 	mov	x29, sp
   8:	f9000bf3 	str	x19, [sp, #16]
   c:	f90017e0 	str	x0, [sp, #40]
  10:	f90013e1 	str	x1, [sp, #32]
  14:	f94017e3 	ldr	x3, [sp, #40]
  18:	f94013e0 	ldr	x0, [sp, #32]
  1c:	f9400400 	ldr	x0, [x0, #8]
  20:	f94017e1 	ldr	x1, [sp, #40]
  24:	91000421 	add	x1, x1, #0x1
  28:	aa0103e2 	mov	x2, x1
  2c:	39400001 	ldrb	w1, [x0]
  30:	aa0303e0 	mov	x0, x3
  34:	94000000 	bl	0 <decltype(auto) kumi::_::operator>><eve::options<rbr::settings<> >&>(kumi::_::foldable<eve::decorated_with<eve::options<rbr::settings<> >, eve::conditional_option, eve::downward_option, eve::upward_option>::options() const::{lambda(auto:1, auto:2 const&)#1}, eve::upward_option>&&, kumi::_::foldable<eve::decorated_with<eve::options<rbr::settings<> >, eve::conditional_option, eve::downward_option, eve::upward_option>::options() const::{lambda(auto:1, auto:2 const&)#1}, eve::options<rbr::settings<> >&>&&)>
  38:	2a1303e0 	mov	w0, w19
  3c:	f9400bf3 	ldr	x19, [sp, #16]
  40:	a8c37bfd 	ldp	x29, x30, [sp], #48
  44:	d65f03c0 	ret

Disassembly of section .text._ZZNK3eve14decorated_withINS_7optionsIN3rbr8settingsIJEEEEEJNS_18conditional_optionENS_15downward_optionENS_13upward_optionEEE7optionsEvENKUlT_RKT0_E_clIS5_S7_EEDaSA_SD_:

0000000000000000 <auto eve::decorated_with<eve::options<rbr::settings<> >, eve::conditional_option, eve::downward_option, eve::upward_option>::options() const::{lambda(auto:1, auto:2 const&)#1}::operator()<eve::options<rbr::settings<> >, eve::downward_option>(eve::options<rbr::settings<> >, eve::downward_option const&) const>:
   0:	d100c3ff 	sub	sp, sp, #0x30
   4:	f9000fe0 	str	x0, [sp, #24]
   8:	390043e1 	strb	w1, [sp, #16]
   c:	f90007e2 	str	x2, [sp, #8]
  10:	f94007e0 	ldr	x0, [sp, #8]
  14:	f90017e0 	str	x0, [sp, #40]
  18:	d503201f 	nop
  1c:	d503201f 	nop
  20:	2a0303e0 	mov	w0, w3
  24:	9100c3ff 	add	sp, sp, #0x30
  28:	d65f03c0 	ret

Disassembly of section .text._ZN4kumi1_rsIN3eve7optionsIN3rbr8settingsIJEEEEEEEDcONS0_8foldableIZNKS2_14decorated_withIS7_JNS2_18conditional_optionENS2_15downward_optionENS2_13upward_optionEEE7optionsEvEUlT_RKT0_E_SB_EEONS8_ISI_SE_EE:

0000000000000000 <decltype(auto) kumi::_::operator>><eve::options<rbr::settings<> > >(kumi::_::foldable<eve::decorated_with<eve::options<rbr::settings<> >, eve::conditional_option, eve::downward_option, eve::upward_option>::options() const::{lambda(auto:1, auto:2 const&)#1}, eve::downward_option>&&, kumi::_::foldable<eve::decorated_with<eve::options<rbr::settings<> >, eve::conditional_option, eve::downward_option, eve::upward_option>::options() const::{lambda(auto:1, auto:2 const&)#1}, eve::options<rbr::settings<> > >&&)>:
   0:	a9bd7bfd 	stp	x29, x30, [sp, #-48]!
   4:	910003fd 	mov	x29, sp
   8:	f9000bf3 	str	x19, [sp, #16]
   c:	f90017e0 	str	x0, [sp, #40]
  10:	f90013e1 	str	x1, [sp, #32]
  14:	f94017e3 	ldr	x3, [sp, #40]
  18:	f94017e0 	ldr	x0, [sp, #40]
  1c:	91000401 	add	x1, x0, #0x1
  20:	f94013e0 	ldr	x0, [sp, #32]
  24:	aa0103e2 	mov	x2, x1
  28:	39400401 	ldrb	w1, [x0, #1]
  2c:	aa0303e0 	mov	x0, x3
  30:	94000000 	bl	0 <decltype(auto) kumi::_::operator>><eve::options<rbr::settings<> > >(kumi::_::foldable<eve::decorated_with<eve::options<rbr::settings<> >, eve::conditional_option, eve::downward_option, eve::upward_option>::options() const::{lambda(auto:1, auto:2 const&)#1}, eve::downward_option>&&, kumi::_::foldable<eve::decorated_with<eve::options<rbr::settings<> >, eve::conditional_option, eve::downward_option, eve::upward_option>::options() const::{lambda(auto:1, auto:2 const&)#1}, eve::options<rbr::settings<> > >&&)>
  34:	2a1303e0 	mov	w0, w19
  38:	f9400bf3 	ldr	x19, [sp, #16]
  3c:	a8c37bfd 	ldp	x29, x30, [sp], #48
  40:	d65f03c0 	ret

Disassembly of section .text._ZZNK3eve14decorated_withINS_7optionsIN3rbr8settingsIJEEEEEJNS_18conditional_optionENS_15downward_optionENS_13upward_optionEEE7optionsEvENKUlT_RKT0_E_clIS5_S6_EEDaSA_SD_:

0000000000000000 <auto eve::decorated_with<eve::options<rbr::settings<> >, eve::conditional_option, eve::downward_option, eve::upward_option>::options() const::{lambda(auto:1, auto:2 const&)#1}::operator()<eve::options<rbr::settings<> >, eve::conditional_option>(eve::options<rbr::settings<> >, eve::conditional_option const&) const>:
   0:	a9ba7bfd 	stp	x29, x30, [sp, #-96]!
   4:	910003fd 	mov	x29, sp
   8:	a90153f3 	stp	x19, x20, [sp, #16]
   c:	f9001fe0 	str	x0, [sp, #56]
  10:	3900c3e1 	strb	w1, [sp, #48]
  14:	f90017e2 	str	x2, [sp, #40]
  18:	90000000 	adrp	x0, 0 <__stack_chk_guard>
  1c:	f9400000 	ldr	x0, [x0]
  20:	f9400001 	ldr	x1, [x0]
  24:	f9002fe1 	str	x1, [sp, #88]
  28:	d2800001 	mov	x1, #0x0                   	// #0
  2c:	f94017e0 	ldr	x0, [sp, #40]
  30:	f9002be0 	str	x0, [sp, #80]
  34:	9100c3f3 	add	x19, sp, #0x30
  38:	90000000 	adrp	x0, 0 <auto eve::decorated_with<eve::options<rbr::settings<> >, eve::conditional_option, eve::downward_option, eve::upward_option>::options() const::{lambda(auto:1, auto:2 const&)#1}::operator()<eve::options<rbr::settings<> >, eve::conditional_option>(eve::options<rbr::settings<> >, eve::conditional_option const&) const>
  3c:	91000001 	add	x1, x0, #0x0
  40:	90000000 	adrp	x0, 0 <auto eve::decorated_with<eve::options<rbr::settings<> >, eve::conditional_option, eve::downward_option, eve::upward_option>::options() const::{lambda(auto:1, auto:2 const&)#1}::operator()<eve::options<rbr::settings<> >, eve::conditional_option>(eve::options<rbr::settings<> >, eve::conditional_option const&) const>
  44:	91000000 	add	x0, x0, #0x0
  48:	94000000 	bl	0 <auto eve::decorated_with<eve::options<rbr::settings<> >, eve::conditional_option, eve::downward_option, eve::upward_option>::options() const::{lambda(auto:1, auto:2 const&)#1}::operator()<eve::options<rbr::settings<> >, eve::conditional_option>(eve::options<rbr::settings<> >, eve::conditional_option const&) const>
  4c:	910123e0 	add	x0, sp, #0x48
  50:	910103e1 	add	x1, sp, #0x40
  54:	94000000 	bl	0 <auto eve::decorated_with<eve::options<rbr::settings<> >, eve::conditional_option, eve::downward_option, eve::upward_option>::options() const::{lambda(auto:1, auto:2 const&)#1}::operator()<eve::options<rbr::settings<> >, eve::conditional_option>(eve::options<rbr::settings<> >, eve::conditional_option const&) const>
  58:	d503201f 	nop
  5c:	910123e0 	add	x0, sp, #0x48
  60:	aa0003e1 	mov	x1, x0
  64:	aa1303e0 	mov	x0, x19
  68:	94000000 	bl	0 <auto eve::decorated_with<eve::options<rbr::settings<> >, eve::conditional_option, eve::downward_option, eve::upward_option>::options() const::{lambda(auto:1, auto:2 const&)#1}::operator()<eve::options<rbr::settings<> >, eve::conditional_option>(eve::options<rbr::settings<> >, eve::conditional_option const&) const>
  6c:	d503201f 	nop
  70:	d503201f 	nop
  74:	d503201f 	nop
  78:	90000000 	adrp	x0, 0 <__stack_chk_guard>
  7c:	f9400000 	ldr	x0, [x0]
  80:	f9402fe2 	ldr	x2, [sp, #88]
  84:	f9400001 	ldr	x1, [x0]
  88:	eb010042 	subs	x2, x2, x1
  8c:	d2800001 	mov	x1, #0x0                   	// #0
  90:	54000040 	b.eq	98 <auto eve::decorated_with<eve::options<rbr::settings<> >, eve::conditional_option, eve::downward_option, eve::upward_option>::options() const::{lambda(auto:1, auto:2 const&)#1}::operator()<eve::options<rbr::settings<> >, eve::conditional_option>(eve::options<rbr::settings<> >, eve::conditional_option const&) const+0x98>  // b.none
  94:	94000000 	bl	0 <__stack_chk_fail>
  98:	2a1403e0 	mov	w0, w20
  9c:	a94153f3 	ldp	x19, x20, [sp, #16]
  a0:	a8c67bfd 	ldp	x29, x30, [sp], #96
  a4:	d65f03c0 	ret

Disassembly of section .text._ZN4kumi1_rsIN3eve7optionsIN3rbr8settingsIJEEEEEEEDcONS0_8foldableIZNKS2_14decorated_withIS7_JNS2_18conditional_optionENS2_15downward_optionENS2_13upward_optionEEE7optionsEvEUlT_RKT0_E_SA_EEONS8_ISI_SE_EE:

0000000000000000 <decltype(auto) kumi::_::operator>><eve::options<rbr::settings<> > >(kumi::_::foldable<eve::decorated_with<eve::options<rbr::settings<> >, eve::conditional_option, eve::downward_option, eve::upward_option>::options() const::{lambda(auto:1, auto:2 const&)#1}, eve::conditional_option>&&, kumi::_::foldable<eve::decorated_with<eve::options<rbr::settings<> >, eve::conditional_option, eve::downward_option, eve::upward_option>::options() const::{lambda(auto:1, auto:2 const&)#1}, eve::options<rbr::settings<> > >&&)>:
   0:	a9bd7bfd 	stp	x29, x30, [sp, #-48]!
   4:	910003fd 	mov	x29, sp
   8:	f9000bf3 	str	x19, [sp, #16]
   c:	f90017e0 	str	x0, [sp, #40]
  10:	f90013e1 	str	x1, [sp, #32]
  14:	f94017e3 	ldr	x3, [sp, #40]
  18:	f94017e0 	ldr	x0, [sp, #40]
  1c:	91000401 	add	x1, x0, #0x1
  20:	f94013e0 	ldr	x0, [sp, #32]
  24:	aa0103e2 	mov	x2, x1
  28:	39400401 	ldrb	w1, [x0, #1]
  2c:	aa0303e0 	mov	x0, x3
  30:	94000000 	bl	0 <decltype(auto) kumi::_::operator>><eve::options<rbr::settings<> > >(kumi::_::foldable<eve::decorated_with<eve::options<rbr::settings<> >, eve::conditional_option, eve::downward_option, eve::upward_option>::options() const::{lambda(auto:1, auto:2 const&)#1}, eve::conditional_option>&&, kumi::_::foldable<eve::decorated_with<eve::options<rbr::settings<> >, eve::conditional_option, eve::downward_option, eve::upward_option>::options() const::{lambda(auto:1, auto:2 const&)#1}, eve::options<rbr::settings<> > >&&)>
  34:	2a1303e0 	mov	w0, w19
  38:	f9400bf3 	ldr	x19, [sp, #16]
  3c:	a8c37bfd 	ldp	x29, x30, [sp], #48
  40:	d65f03c0 	ret

Disassembly of section .text._ZN4kumi9fold_leftIZNK3eve14decorated_withINS1_7optionsIN3rbr8settingsIJEEEEEJNS1_18conditional_optionENS1_15downward_optionENS1_13upward_optionEEE7optionsEvEUlT_RKT0_E_NS_5tupleIJS8_S9_SA_EEES7_EEDaSC_OSD_T1_:

0000000000000000 <auto kumi::fold_left<eve::decorated_with<eve::options<rbr::settings<> >, eve::conditional_option, eve::downward_option, eve::upward_option>::options() const::{lambda(auto:1, auto:2 const&)#1}, kumi::tuple<eve::conditional_option, eve::downward_option, eve::upward_option>, eve::options<rbr::settings<> > >(eve::decorated_with<eve::options<rbr::settings<> >, eve::conditional_option, eve::downward_option, eve::upward_option>::options() const::{lambda(auto:1, auto:2 const&)#1}, kumi::tuple<eve::conditional_option, eve::downward_option, eve::upward_option>&&, eve::options<rbr::settings<> >)>:
   0:	a9ba7bfd 	stp	x29, x30, [sp, #-96]!
   4:	910003fd 	mov	x29, sp
   8:	f9000bf3 	str	x19, [sp, #16]
   c:	3900e3e0 	strb	w0, [sp, #56]
  10:	f9001be1 	str	x1, [sp, #48]
  14:	3900a3e2 	strb	w2, [sp, #40]
  18:	90000000 	adrp	x0, 0 <__stack_chk_guard>
  1c:	f9400000 	ldr	x0, [x0]
  20:	f9400001 	ldr	x1, [x0]
  24:	f9002fe1 	str	x1, [sp, #88]
  28:	d2800001 	mov	x1, #0x0                   	// #0
  2c:	9100e3e0 	add	x0, sp, #0x38
  30:	f90023e0 	str	x0, [sp, #64]
  34:	f9401be0 	ldr	x0, [sp, #48]
  38:	f90027e0 	str	x0, [sp, #72]
  3c:	9100a3e0 	add	x0, sp, #0x28
  40:	f9002be0 	str	x0, [sp, #80]
  44:	910103e0 	add	x0, sp, #0x40
  48:	2a0303e1 	mov	w1, w3
  4c:	94000000 	bl	0 <auto kumi::fold_left<eve::decorated_with<eve::options<rbr::settings<> >, eve::conditional_option, eve::downward_option, eve::upward_option>::options() const::{lambda(auto:1, auto:2 const&)#1}, kumi::tuple<eve::conditional_option, eve::downward_option, eve::upward_option>, eve::options<rbr::settings<> > >(eve::decorated_with<eve::options<rbr::settings<> >, eve::conditional_option, eve::downward_option, eve::upward_option>::options() const::{lambda(auto:1, auto:2 const&)#1}, kumi::tuple<eve::conditional_option, eve::downward_option, eve::upward_option>&&, eve::options<rbr::settings<> >)>
  50:	d503201f 	nop
  54:	90000000 	adrp	x0, 0 <__stack_chk_guard>
  58:	f9400000 	ldr	x0, [x0]
  5c:	f9402fe2 	ldr	x2, [sp, #88]
  60:	f9400001 	ldr	x1, [x0]
  64:	eb010042 	subs	x2, x2, x1
  68:	d2800001 	mov	x1, #0x0                   	// #0
  6c:	54000040 	b.eq	74 <auto kumi::fold_left<eve::decorated_with<eve::options<rbr::settings<> >, eve::conditional_option, eve::downward_option, eve::upward_option>::options() const::{lambda(auto:1, auto:2 const&)#1}, kumi::tuple<eve::conditional_option, eve::downward_option, eve::upward_option>, eve::options<rbr::settings<> > >(eve::decorated_with<eve::options<rbr::settings<> >, eve::conditional_option, eve::downward_option, eve::upward_option>::options() const::{lambda(auto:1, auto:2 const&)#1}, kumi::tuple<eve::conditional_option, eve::downward_option, eve::upward_option>&&, eve::options<rbr::settings<> >)+0x74>  // b.none
  70:	94000000 	bl	0 <__stack_chk_fail>
  74:	2a1303e0 	mov	w0, w19
  78:	f9400bf3 	ldr	x19, [sp, #16]
  7c:	a8c67bfd 	ldp	x29, x30, [sp], #96
  80:	d65f03c0 	ret

Disassembly of section .text._ZZN4kumi9fold_leftIZNK3eve14decorated_withINS1_7optionsIN3rbr8settingsIJEEEEEJNS1_18conditional_optionEEE7optionsEvEUlT_RKT0_E_NS_5tupleIJS8_EEES7_EEDaSA_OSB_T1_ENKUlSt16integer_sequenceImJXspT_EEEE_clIJLm0EEEEDaSK_:

0000000000000000 <_ZZN4kumi9fold_leftIZNK3eve14decorated_withINS1_7optionsIN3rbr8settingsIJEEEEEJNS1_18conditional_optionEEE7optionsEvEUlT_RKT0_E_NS_5tupleIJS8_EEES7_EEDaSA_OSB_T1_ENKUlSt16integer_sequenceImJXspT_EEEE_clIJLm0EEEEDaSK_>:
   0:	a9b97bfd 	stp	x29, x30, [sp, #-112]!
   4:	910003fd 	mov	x29, sp
   8:	f9000bf3 	str	x19, [sp, #16]
   c:	f90017e0 	str	x0, [sp, #40]
  10:	390083e1 	strb	w1, [sp, #32]
  14:	90000000 	adrp	x0, 0 <__stack_chk_guard>
  18:	f9400000 	ldr	x0, [x0]
  1c:	f9400001 	ldr	x1, [x0]
  20:	f90037e1 	str	x1, [sp, #104]
  24:	d2800001 	mov	x1, #0x0                   	// #0
  28:	f94017e0 	ldr	x0, [sp, #40]
  2c:	f9400400 	ldr	x0, [x0, #8]
  30:	f90023e0 	str	x0, [sp, #64]
  34:	f94023e0 	ldr	x0, [sp, #64]
  38:	f90027e0 	str	x0, [sp, #72]
  3c:	390163e2 	strb	w2, [sp, #88]
  40:	f94027e0 	ldr	x0, [sp, #72]
  44:	f9002be0 	str	x0, [sp, #80]
  48:	d503201f 	nop
  4c:	d503201f 	nop
  50:	f94017e0 	ldr	x0, [sp, #40]
  54:	f9400800 	ldr	x0, [x0, #16]
  58:	f90033e0 	str	x0, [sp, #96]
  5c:	910163e1 	add	x1, sp, #0x58
  60:	9100e3e0 	add	x0, sp, #0x38
  64:	94000000 	bl	0 <_ZZN4kumi9fold_leftIZNK3eve14decorated_withINS1_7optionsIN3rbr8settingsIJEEEEEJNS1_18conditional_optionEEE7optionsEvEUlT_RKT0_E_NS_5tupleIJS8_EEES7_EEDaSA_OSB_T1_ENKUlSt16integer_sequenceImJXspT_EEEE_clIJLm0EEEEDaSK_>
  68:	90000000 	adrp	x0, 0 <__stack_chk_guard>
  6c:	f9400000 	ldr	x0, [x0]
  70:	f94037e2 	ldr	x2, [sp, #104]
  74:	f9400001 	ldr	x1, [x0]
  78:	eb010042 	subs	x2, x2, x1
  7c:	d2800001 	mov	x1, #0x0                   	// #0
  80:	54000040 	b.eq	88 <_ZZN4kumi9fold_leftIZNK3eve14decorated_withINS1_7optionsIN3rbr8settingsIJEEEEEJNS1_18conditional_optionEEE7optionsEvEUlT_RKT0_E_NS_5tupleIJS8_EEES7_EEDaSA_OSB_T1_ENKUlSt16integer_sequenceImJXspT_EEEE_clIJLm0EEEEDaSK_+0x88>  // b.none
  84:	94000000 	bl	0 <__stack_chk_fail>
  88:	2a1303e0 	mov	w0, w19
  8c:	f9400bf3 	ldr	x19, [sp, #16]
  90:	a8c77bfd 	ldp	x29, x30, [sp], #112
  94:	d65f03c0 	ret

Disassembly of section .text._ZZNK3eve14decorated_withINS_7optionsIN3rbr8settingsIJEEEEEJNS_18conditional_optionEEE7optionsEvENKUlT_RKT0_E_clIS5_S6_EEDaS8_SB_:

0000000000000000 <auto eve::decorated_with<eve::options<rbr::settings<> >, eve::conditional_option>::options() const::{lambda(auto:1, auto:2 const&)#1}::operator()<eve::options<rbr::settings<> >, eve::conditional_option>(eve::options<rbr::settings<> >, eve::conditional_option const&) const>:
   0:	a9ba7bfd 	stp	x29, x30, [sp, #-96]!
   4:	910003fd 	mov	x29, sp
   8:	a90153f3 	stp	x19, x20, [sp, #16]
   c:	f9001fe0 	str	x0, [sp, #56]
  10:	3900c3e1 	strb	w1, [sp, #48]
  14:	f90017e2 	str	x2, [sp, #40]
  18:	90000000 	adrp	x0, 0 <__stack_chk_guard>
  1c:	f9400000 	ldr	x0, [x0]
  20:	f9400001 	ldr	x1, [x0]
  24:	f9002fe1 	str	x1, [sp, #88]
  28:	d2800001 	mov	x1, #0x0                   	// #0
  2c:	f94017e0 	ldr	x0, [sp, #40]
  30:	f9002be0 	str	x0, [sp, #80]
  34:	9100c3f3 	add	x19, sp, #0x30
  38:	90000000 	adrp	x0, 0 <auto eve::decorated_with<eve::options<rbr::settings<> >, eve::conditional_option>::options() const::{lambda(auto:1, auto:2 const&)#1}::operator()<eve::options<rbr::settings<> >, eve::conditional_option>(eve::options<rbr::settings<> >, eve::conditional_option const&) const>
  3c:	91000001 	add	x1, x0, #0x0
  40:	90000000 	adrp	x0, 0 <auto eve::decorated_with<eve::options<rbr::settings<> >, eve::conditional_option>::options() const::{lambda(auto:1, auto:2 const&)#1}::operator()<eve::options<rbr::settings<> >, eve::conditional_option>(eve::options<rbr::settings<> >, eve::conditional_option const&) const>
  44:	91000000 	add	x0, x0, #0x0
  48:	94000000 	bl	0 <auto eve::decorated_with<eve::options<rbr::settings<> >, eve::conditional_option>::options() const::{lambda(auto:1, auto:2 const&)#1}::operator()<eve::options<rbr::settings<> >, eve::conditional_option>(eve::options<rbr::settings<> >, eve::conditional_option const&) const>
  4c:	910123e0 	add	x0, sp, #0x48
  50:	910103e1 	add	x1, sp, #0x40
  54:	94000000 	bl	0 <auto eve::decorated_with<eve::options<rbr::settings<> >, eve::conditional_option>::options() const::{lambda(auto:1, auto:2 const&)#1}::operator()<eve::options<rbr::settings<> >, eve::conditional_option>(eve::options<rbr::settings<> >, eve::conditional_option const&) const>
  58:	d503201f 	nop
  5c:	910123e0 	add	x0, sp, #0x48
  60:	aa0003e1 	mov	x1, x0
  64:	aa1303e0 	mov	x0, x19
  68:	94000000 	bl	0 <auto eve::decorated_with<eve::options<rbr::settings<> >, eve::conditional_option>::options() const::{lambda(auto:1, auto:2 const&)#1}::operator()<eve::options<rbr::settings<> >, eve::conditional_option>(eve::options<rbr::settings<> >, eve::conditional_option const&) const>
  6c:	d503201f 	nop
  70:	d503201f 	nop
  74:	d503201f 	nop
  78:	90000000 	adrp	x0, 0 <__stack_chk_guard>
  7c:	f9400000 	ldr	x0, [x0]
  80:	f9402fe2 	ldr	x2, [sp, #88]
  84:	f9400001 	ldr	x1, [x0]
  88:	eb010042 	subs	x2, x2, x1
  8c:	d2800001 	mov	x1, #0x0                   	// #0
  90:	54000040 	b.eq	98 <auto eve::decorated_with<eve::options<rbr::settings<> >, eve::conditional_option>::options() const::{lambda(auto:1, auto:2 const&)#1}::operator()<eve::options<rbr::settings<> >, eve::conditional_option>(eve::options<rbr::settings<> >, eve::conditional_option const&) const+0x98>  // b.none
  94:	94000000 	bl	0 <__stack_chk_fail>
  98:	2a1403e0 	mov	w0, w20
  9c:	a94153f3 	ldp	x19, x20, [sp, #16]
  a0:	a8c67bfd 	ldp	x29, x30, [sp], #96
  a4:	d65f03c0 	ret

Disassembly of section .text._ZN4kumi1_rsIRN3eve7optionsIN3rbr8settingsIJEEEEEEEDcONS0_8foldableIZNKS2_14decorated_withIS7_JNS2_18conditional_optionEEE7optionsEvEUlT_RKT0_E_SB_EEONS9_ISH_SD_EE:

0000000000000000 <decltype(auto) kumi::_::operator>><eve::options<rbr::settings<> >&>(kumi::_::foldable<eve::decorated_with<eve::options<rbr::settings<> >, eve::conditional_option>::options() const::{lambda(auto:1, auto:2 const&)#1}, eve::conditional_option>&&, kumi::_::foldable<eve::decorated_with<eve::options<rbr::settings<> >, eve::conditional_option>::options() const::{lambda(auto:1, auto:2 const&)#1}, eve::options<rbr::settings<> >&>&&)>:
   0:	a9bd7bfd 	stp	x29, x30, [sp, #-48]!
   4:	910003fd 	mov	x29, sp
   8:	f9000bf3 	str	x19, [sp, #16]
   c:	f90017e0 	str	x0, [sp, #40]
  10:	f90013e1 	str	x1, [sp, #32]
  14:	f94017e3 	ldr	x3, [sp, #40]
  18:	f94013e0 	ldr	x0, [sp, #32]
  1c:	f9400400 	ldr	x0, [x0, #8]
  20:	f94017e1 	ldr	x1, [sp, #40]
  24:	91000421 	add	x1, x1, #0x1
  28:	aa0103e2 	mov	x2, x1
  2c:	39400001 	ldrb	w1, [x0]
  30:	aa0303e0 	mov	x0, x3
  34:	94000000 	bl	0 <decltype(auto) kumi::_::operator>><eve::options<rbr::settings<> >&>(kumi::_::foldable<eve::decorated_with<eve::options<rbr::settings<> >, eve::conditional_option>::options() const::{lambda(auto:1, auto:2 const&)#1}, eve::conditional_option>&&, kumi::_::foldable<eve::decorated_with<eve::options<rbr::settings<> >, eve::conditional_option>::options() const::{lambda(auto:1, auto:2 const&)#1}, eve::options<rbr::settings<> >&>&&)>
  38:	2a1303e0 	mov	w0, w19
  3c:	f9400bf3 	ldr	x19, [sp, #16]
  40:	a8c37bfd 	ldp	x29, x30, [sp], #48
  44:	d65f03c0 	ret

Disassembly of section .text._ZN4kumi9fold_leftIZNK3eve14decorated_withINS1_7optionsIN3rbr8settingsIJEEEEEJNS1_18conditional_optionEEE7optionsEvEUlT_RKT0_E_NS_5tupleIJS8_EEES7_EEDaSA_OSB_T1_:

0000000000000000 <auto kumi::fold_left<eve::decorated_with<eve::options<rbr::settings<> >, eve::conditional_option>::options() const::{lambda(auto:1, auto:2 const&)#1}, kumi::tuple<eve::conditional_option>, eve::options<rbr::settings<> > >(eve::decorated_with<eve::options<rbr::settings<> >, eve::conditional_option>::options() const::{lambda(auto:1, auto:2 const&)#1}, kumi::tuple<eve::conditional_option>&&, eve::options<rbr::settings<> >)>:
   0:	a9ba7bfd 	stp	x29, x30, [sp, #-96]!
   4:	910003fd 	mov	x29, sp
   8:	f9000bf3 	str	x19, [sp, #16]
   c:	3900e3e0 	strb	w0, [sp, #56]
  10:	f9001be1 	str	x1, [sp, #48]
  14:	3900a3e2 	strb	w2, [sp, #40]
  18:	90000000 	adrp	x0, 0 <__stack_chk_guard>
  1c:	f9400000 	ldr	x0, [x0]
  20:	f9400001 	ldr	x1, [x0]
  24:	f9002fe1 	str	x1, [sp, #88]
  28:	d2800001 	mov	x1, #0x0                   	// #0
  2c:	9100e3e0 	add	x0, sp, #0x38
  30:	f90023e0 	str	x0, [sp, #64]
  34:	f9401be0 	ldr	x0, [sp, #48]
  38:	f90027e0 	str	x0, [sp, #72]
  3c:	9100a3e0 	add	x0, sp, #0x28
  40:	f9002be0 	str	x0, [sp, #80]
  44:	910103e0 	add	x0, sp, #0x40
  48:	2a0303e1 	mov	w1, w3
  4c:	94000000 	bl	0 <auto kumi::fold_left<eve::decorated_with<eve::options<rbr::settings<> >, eve::conditional_option>::options() const::{lambda(auto:1, auto:2 const&)#1}, kumi::tuple<eve::conditional_option>, eve::options<rbr::settings<> > >(eve::decorated_with<eve::options<rbr::settings<> >, eve::conditional_option>::options() const::{lambda(auto:1, auto:2 const&)#1}, kumi::tuple<eve::conditional_option>&&, eve::options<rbr::settings<> >)>
  50:	d503201f 	nop
  54:	90000000 	adrp	x0, 0 <__stack_chk_guard>
  58:	f9400000 	ldr	x0, [x0]
  5c:	f9402fe2 	ldr	x2, [sp, #88]
  60:	f9400001 	ldr	x1, [x0]
  64:	eb010042 	subs	x2, x2, x1
  68:	d2800001 	mov	x1, #0x0                   	// #0
  6c:	54000040 	b.eq	74 <auto kumi::fold_left<eve::decorated_with<eve::options<rbr::settings<> >, eve::conditional_option>::options() const::{lambda(auto:1, auto:2 const&)#1}, kumi::tuple<eve::conditional_option>, eve::options<rbr::settings<> > >(eve::decorated_with<eve::options<rbr::settings<> >, eve::conditional_option>::options() const::{lambda(auto:1, auto:2 const&)#1}, kumi::tuple<eve::conditional_option>&&, eve::options<rbr::settings<> >)+0x74>  // b.none
  70:	94000000 	bl	0 <__stack_chk_fail>
  74:	2a1303e0 	mov	w0, w19
  78:	f9400bf3 	ldr	x19, [sp, #16]
  7c:	a8c67bfd 	ldp	x29, x30, [sp], #96
  80:	d65f03c0 	ret

Disassembly of section .text._ZNK3eve21strict_tuple_callableINS_12bit_andnot_tENS_7optionsIN3rbr8settingsIJEEEEEJEE8behaviorINS2_INS4_IJNS3_6optionINS_6detail15condition_key_tENS_12ignore_none_EEEEEEEEdJdENS_6asimd_EEEDaT2_RKT_RKT0_DpRKT1_:

0000000000000000 <auto eve::strict_tuple_callable<eve::bit_andnot_t, eve::options<rbr::settings<> >>::behavior<eve::options<rbr::settings<rbr::option<eve::detail::condition_key_t, eve::ignore_none_> > >, double, double, eve::asimd_>(eve::asimd_, eve::options<rbr::settings<rbr::option<eve::detail::condition_key_t, eve::ignore_none_> > > const&, double const&, double const&) const>:
   0:	d10843ff 	sub	sp, sp, #0x210
   4:	a9007bfd 	stp	x29, x30, [sp]
   8:	910003fd 	mov	x29, sp
   c:	a90153f3 	stp	x19, x20, [sp, #16]
  10:	a9025bf5 	stp	x21, x22, [sp, #32]
  14:	a90363f7 	stp	x23, x24, [sp, #48]
  18:	a9046bf9 	stp	x25, x26, [sp, #64]
  1c:	f9003fe0 	str	x0, [sp, #120]
  20:	3901c3e1 	strb	w1, [sp, #112]
  24:	f90037e2 	str	x2, [sp, #104]
  28:	f90033e3 	str	x3, [sp, #96]
  2c:	f9002fe4 	str	x4, [sp, #88]
  30:	90000000 	adrp	x0, 0 <__stack_chk_guard>
  34:	f9400000 	ldr	x0, [x0]
  38:	f9400001 	ldr	x1, [x0]
  3c:	f90107e1 	str	x1, [sp, #520]
  40:	d2800001 	mov	x1, #0x0                   	// #0
  44:	f9403fe0 	ldr	x0, [sp, #120]
  48:	f94033e1 	ldr	x1, [sp, #96]
  4c:	fd400020 	ldr	d0, [x1]
  50:	f9007be0 	str	x0, [sp, #240]
  54:	390223e7 	strb	w7, [sp, #136]
  58:	f94037e0 	ldr	x0, [sp, #104]
  5c:	f9007fe0 	str	x0, [sp, #248]
  60:	fd0083e0 	str	d0, [sp, #256]
  64:	f9402fe0 	ldr	x0, [sp, #88]
  68:	f90087e0 	str	x0, [sp, #264]
  6c:	52800020 	mov	w0, #0x1                   	// #1
  70:	3902f3e0 	strb	w0, [sp, #188]
  74:	f9407be0 	ldr	x0, [sp, #240]
  78:	f9008be0 	str	x0, [sp, #272]
  7c:	390243e6 	strb	w6, [sp, #144]
  80:	f9407fe0 	ldr	x0, [sp, #248]
  84:	f9008fe0 	str	x0, [sp, #280]
  88:	fd4083e0 	ldr	d0, [sp, #256]
  8c:	fd0067e0 	str	d0, [sp, #200]
  90:	f94087e0 	ldr	x0, [sp, #264]
  94:	f90093e0 	str	x0, [sp, #288]
  98:	52800020 	mov	w0, #0x1                   	// #1
  9c:	3902f7e0 	strb	w0, [sp, #189]
  a0:	3902fbff 	strb	wzr, [sp, #190]
  a4:	3902ffff 	strb	wzr, [sp, #191]
  a8:	390303ff 	strb	wzr, [sp, #192]
  ac:	390263e5 	strb	w5, [sp, #152]
  b0:	f9408fe0 	ldr	x0, [sp, #280]
  b4:	f90097e0 	str	x0, [sp, #296]
  b8:	f94093e0 	ldr	x0, [sp, #288]
  bc:	f9009be0 	str	x0, [sp, #304]
  c0:	fd4067e1 	ldr	d1, [sp, #200]
  c4:	f9409be0 	ldr	x0, [sp, #304]
  c8:	fd400000 	ldr	d0, [x0]
  cc:	f94097e0 	ldr	x0, [sp, #296]
  d0:	f9009fe0 	str	x0, [sp, #312]
  d4:	fd006fe1 	str	d1, [sp, #216]
  d8:	fd006be0 	str	d0, [sp, #208]
  dc:	9102e3e0 	add	x0, sp, #0xb8
  e0:	94000000 	bl	0 <auto eve::strict_tuple_callable<eve::bit_andnot_t, eve::options<rbr::settings<> >>::behavior<eve::options<rbr::settings<rbr::option<eve::detail::condition_key_t, eve::ignore_none_> > >, double, double, eve::asimd_>(eve::asimd_, eve::options<rbr::settings<rbr::option<eve::detail::condition_key_t, eve::ignore_none_> > > const&, double const&, double const&) const>
  e4:	910363e0 	add	x0, sp, #0xd8
  e8:	f900a3e0 	str	x0, [sp, #320]
  ec:	9102e3e0 	add	x0, sp, #0xb8
  f0:	f900a7e0 	str	x0, [sp, #328]
  f4:	9103a3e1 	add	x1, sp, #0xe8
  f8:	910383e0 	add	x0, sp, #0xe0
  fc:	f940a7e3 	ldr	x3, [sp, #328]
 100:	f940a3e2 	ldr	x2, [sp, #320]
 104:	94000000 	bl	0 <auto eve::strict_tuple_callable<eve::bit_andnot_t, eve::options<rbr::settings<> >>::behavior<eve::options<rbr::settings<rbr::option<eve::detail::condition_key_t, eve::ignore_none_> > >, double, double, eve::asimd_>(eve::asimd_, eve::options<rbr::settings<rbr::option<eve::detail::condition_key_t, eve::ignore_none_> > > const&, double const&, double const&) const>
 108:	f940a3e0 	ldr	x0, [sp, #320]
 10c:	f900abe0 	str	x0, [sp, #336]
 110:	f940a7e0 	ldr	x0, [sp, #328]
 114:	f900afe0 	str	x0, [sp, #344]
 118:	f940abe0 	ldr	x0, [sp, #336]
 11c:	f9400000 	ldr	x0, [x0]
 120:	f90077e0 	str	x0, [sp, #232]
 124:	f94077e0 	ldr	x0, [sp, #232]
 128:	d503201f 	nop
 12c:	d503201f 	nop
 130:	f900b3e0 	str	x0, [sp, #352]
 134:	9102e3e0 	add	x0, sp, #0xb8
 138:	94000000 	bl	0 <auto eve::strict_tuple_callable<eve::bit_andnot_t, eve::options<rbr::settings<> >>::behavior<eve::options<rbr::settings<rbr::option<eve::detail::condition_key_t, eve::ignore_none_> > >, double, double, eve::asimd_>(eve::asimd_, eve::options<rbr::settings<rbr::option<eve::detail::condition_key_t, eve::ignore_none_> > > const&, double const&, double const&) const>
 13c:	910343e0 	add	x0, sp, #0xd0
 140:	f900b7e0 	str	x0, [sp, #360]
 144:	9102e3e0 	add	x0, sp, #0xb8
 148:	f900bbe0 	str	x0, [sp, #368]
 14c:	9103a3e1 	add	x1, sp, #0xe8
 150:	910383e0 	add	x0, sp, #0xe0
 154:	f940bbe3 	ldr	x3, [sp, #368]
 158:	f940b7e2 	ldr	x2, [sp, #360]
 15c:	94000000 	bl	0 <auto eve::strict_tuple_callable<eve::bit_andnot_t, eve::options<rbr::settings<> >>::behavior<eve::options<rbr::settings<rbr::option<eve::detail::condition_key_t, eve::ignore_none_> > >, double, double, eve::asimd_>(eve::asimd_, eve::options<rbr::settings<rbr::option<eve::detail::condition_key_t, eve::ignore_none_> > > const&, double const&, double const&) const>
 160:	f940b7e0 	ldr	x0, [sp, #360]
 164:	f900bfe0 	str	x0, [sp, #376]
 168:	f940bbe0 	ldr	x0, [sp, #368]
 16c:	f900c3e0 	str	x0, [sp, #384]
 170:	f940bfe0 	ldr	x0, [sp, #376]
 174:	f9400000 	ldr	x0, [x0]
 178:	f90077e0 	str	x0, [sp, #232]
 17c:	f94077e0 	ldr	x0, [sp, #232]
 180:	d503201f 	nop
 184:	d503201f 	nop
 188:	f900c7e0 	str	x0, [sp, #392]
 18c:	f940c7e0 	ldr	x0, [sp, #392]
 190:	f900cbe0 	str	x0, [sp, #400]
 194:	90000000 	adrp	x0, 0 <auto eve::strict_tuple_callable<eve::bit_andnot_t, eve::options<rbr::settings<> >>::behavior<eve::options<rbr::settings<rbr::option<eve::detail::condition_key_t, eve::ignore_none_> > >, double, double, eve::asimd_>(eve::asimd_, eve::options<rbr::settings<rbr::option<eve::detail::condition_key_t, eve::ignore_none_> > > const&, double const&, double const&) const>
 198:	91000013 	add	x19, x0, #0x0
 19c:	90000000 	adrp	x0, 0 <auto eve::strict_tuple_callable<eve::bit_andnot_t, eve::options<rbr::settings<> >>::behavior<eve::options<rbr::settings<rbr::option<eve::detail::condition_key_t, eve::ignore_none_> > >, double, double, eve::asimd_>(eve::asimd_, eve::options<rbr::settings<rbr::option<eve::detail::condition_key_t, eve::ignore_none_> > > const&, double const&, double const&) const>
 1a0:	91000000 	add	x0, x0, #0x0
 1a4:	f900cfe0 	str	x0, [sp, #408]
 1a8:	f940cfe0 	ldr	x0, [sp, #408]
 1ac:	9103a3e1 	add	x1, sp, #0xe8
 1b0:	39400002 	ldrb	w2, [x0]
 1b4:	2a1a03e0 	mov	w0, w26
 1b8:	94000000 	bl	0 <auto eve::strict_tuple_callable<eve::bit_andnot_t, eve::options<rbr::settings<> >>::behavior<eve::options<rbr::settings<rbr::option<eve::detail::condition_key_t, eve::ignore_none_> > >, double, double, eve::asimd_>(eve::asimd_, eve::options<rbr::settings<rbr::option<eve::detail::condition_key_t, eve::ignore_none_> > > const&, double const&, double const&) const>
 1bc:	14000002 	b	1c4 <auto eve::strict_tuple_callable<eve::bit_andnot_t, eve::options<rbr::settings<> >>::behavior<eve::options<rbr::settings<rbr::option<eve::detail::condition_key_t, eve::ignore_none_> > >, double, double, eve::asimd_>(eve::asimd_, eve::options<rbr::settings<rbr::option<eve::detail::condition_key_t, eve::ignore_none_> > > const&, double const&, double const&) const+0x1c4>
 1c0:	94000000 	bl	0 <std::terminate()>
 1c4:	f900d3f3 	str	x19, [sp, #416]
 1c8:	390283f7 	strb	w23, [sp, #160]
 1cc:	f940cbe0 	ldr	x0, [sp, #400]
 1d0:	f900d7e0 	str	x0, [sp, #424]
 1d4:	52800020 	mov	w0, #0x1                   	// #1
 1d8:	390307e0 	strb	w0, [sp, #193]
 1dc:	f940d3e0 	ldr	x0, [sp, #416]
 1e0:	f900dbe0 	str	x0, [sp, #432]
 1e4:	3902a3f6 	strb	w22, [sp, #168]
 1e8:	910383e0 	add	x0, sp, #0xe0
 1ec:	f900dfe0 	str	x0, [sp, #440]
 1f0:	f940d7e0 	ldr	x0, [sp, #424]
 1f4:	f900e3e0 	str	x0, [sp, #448]
 1f8:	52800020 	mov	w0, #0x1                   	// #1
 1fc:	39030be0 	strb	w0, [sp, #194]
 200:	52800020 	mov	w0, #0x1                   	// #1
 204:	39030fe0 	strb	w0, [sp, #195]
 208:	f940dbe0 	ldr	x0, [sp, #432]
 20c:	f900e7e0 	str	x0, [sp, #456]
 210:	3902c3f5 	strb	w21, [sp, #176]
 214:	f940dfe0 	ldr	x0, [sp, #440]
 218:	f900ebe0 	str	x0, [sp, #464]
 21c:	f940e3e0 	ldr	x0, [sp, #448]
 220:	f90077e0 	str	x0, [sp, #232]
 224:	52800020 	mov	w0, #0x1                   	// #1
 228:	390313e0 	strb	w0, [sp, #196]
 22c:	52800020 	mov	w0, #0x1                   	// #1
 230:	390317e0 	strb	w0, [sp, #197]
 234:	39031bff 	strb	wzr, [sp, #198]
 238:	39031fff 	strb	wzr, [sp, #199]
 23c:	3902e3f4 	strb	w20, [sp, #184]
 240:	f940ebe0 	ldr	x0, [sp, #464]
 244:	f900efe0 	str	x0, [sp, #472]
 248:	9103a3e1 	add	x1, sp, #0xe8
 24c:	9102e3e0 	add	x0, sp, #0xb8
 250:	aa0103e3 	mov	x3, x1
 254:	f940efe2 	ldr	x2, [sp, #472]
 258:	aa0003e1 	mov	x1, x0
 25c:	90000000 	adrp	x0, 0 <auto eve::strict_tuple_callable<eve::bit_andnot_t, eve::options<rbr::settings<> >>::behavior<eve::options<rbr::settings<rbr::option<eve::detail::condition_key_t, eve::ignore_none_> > >, double, double, eve::asimd_>(eve::asimd_, eve::options<rbr::settings<rbr::option<eve::detail::condition_key_t, eve::ignore_none_> > > const&, double const&, double const&) const>
 260:	91000000 	add	x0, x0, #0x0
 264:	94000000 	bl	0 <auto eve::strict_tuple_callable<eve::bit_andnot_t, eve::options<rbr::settings<> >>::behavior<eve::options<rbr::settings<rbr::option<eve::detail::condition_key_t, eve::ignore_none_> > >, double, double, eve::asimd_>(eve::asimd_, eve::options<rbr::settings<rbr::option<eve::detail::condition_key_t, eve::ignore_none_> > > const&, double const&, double const&) const>
 268:	aa0003e1 	mov	x1, x0
 26c:	d503201f 	nop
 270:	d503201f 	nop
 274:	d503201f 	nop
 278:	d503201f 	nop
 27c:	f940b3e0 	ldr	x0, [sp, #352]
 280:	f90077e0 	str	x0, [sp, #232]
 284:	f90073e1 	str	x1, [sp, #224]
 288:	90000000 	adrp	x0, 0 <auto eve::strict_tuple_callable<eve::bit_andnot_t, eve::options<rbr::settings<> >>::behavior<eve::options<rbr::settings<rbr::option<eve::detail::condition_key_t, eve::ignore_none_> > >, double, double, eve::asimd_>(eve::asimd_, eve::options<rbr::settings<rbr::option<eve::detail::condition_key_t, eve::ignore_none_> > > const&, double const&, double const&) const>
 28c:	91000013 	add	x19, x0, #0x0
 290:	90000000 	adrp	x0, 0 <auto eve::strict_tuple_callable<eve::bit_andnot_t, eve::options<rbr::settings<> >>::behavior<eve::options<rbr::settings<rbr::option<eve::detail::condition_key_t, eve::ignore_none_> > >, double, double, eve::asimd_>(eve::asimd_, eve::options<rbr::settings<rbr::option<eve::detail::condition_key_t, eve::ignore_none_> > > const&, double const&, double const&) const>
 294:	91000000 	add	x0, x0, #0x0
 298:	f900f3e0 	str	x0, [sp, #480]
 29c:	f940f3e0 	ldr	x0, [sp, #480]
 2a0:	9102e3e1 	add	x1, sp, #0xb8
 2a4:	39400002 	ldrb	w2, [x0]
 2a8:	2a1903e0 	mov	w0, w25
 2ac:	94000000 	bl	0 <auto eve::strict_tuple_callable<eve::bit_andnot_t, eve::options<rbr::settings<> >>::behavior<eve::options<rbr::settings<rbr::option<eve::detail::condition_key_t, eve::ignore_none_> > >, double, double, eve::asimd_>(eve::asimd_, eve::options<rbr::settings<rbr::option<eve::detail::condition_key_t, eve::ignore_none_> > > const&, double const&, double const&) const>
 2b0:	14000002 	b	2b8 <auto eve::strict_tuple_callable<eve::bit_andnot_t, eve::options<rbr::settings<> >>::behavior<eve::options<rbr::settings<rbr::option<eve::detail::condition_key_t, eve::ignore_none_> > >, double, double, eve::asimd_>(eve::asimd_, eve::options<rbr::settings<rbr::option<eve::detail::condition_key_t, eve::ignore_none_> > > const&, double const&, double const&) const+0x2b8>
 2b4:	94000000 	bl	0 <std::terminate()>
 2b8:	910383e2 	add	x2, sp, #0xe0
 2bc:	9103a3e1 	add	x1, sp, #0xe8
 2c0:	9102e3e0 	add	x0, sp, #0xb8
 2c4:	aa0203e4 	mov	x4, x2
 2c8:	aa0103e3 	mov	x3, x1
 2cc:	aa0003e2 	mov	x2, x0
 2d0:	2a1803e1 	mov	w1, w24
 2d4:	aa1303e0 	mov	x0, x19
 2d8:	94000000 	bl	0 <auto eve::strict_tuple_callable<eve::bit_andnot_t, eve::options<rbr::settings<> >>::behavior<eve::options<rbr::settings<rbr::option<eve::detail::condition_key_t, eve::ignore_none_> > >, double, double, eve::asimd_>(eve::asimd_, eve::options<rbr::settings<rbr::option<eve::detail::condition_key_t, eve::ignore_none_> > > const&, double const&, double const&) const>
 2dc:	f90077e0 	str	x0, [sp, #232]
 2e0:	9102c3e0 	add	x0, sp, #0xb0
 2e4:	94000000 	bl	0 <auto eve::strict_tuple_callable<eve::bit_andnot_t, eve::options<rbr::settings<> >>::behavior<eve::options<rbr::settings<rbr::option<eve::detail::condition_key_t, eve::ignore_none_> > >, double, double, eve::asimd_>(eve::asimd_, eve::options<rbr::settings<rbr::option<eve::detail::condition_key_t, eve::ignore_none_> > > const&, double const&, double const&) const>
 2e8:	9103a3e0 	add	x0, sp, #0xe8
 2ec:	f900f7e0 	str	x0, [sp, #488]
 2f0:	9102c3e0 	add	x0, sp, #0xb0
 2f4:	f900fbe0 	str	x0, [sp, #496]
 2f8:	910383e1 	add	x1, sp, #0xe0
 2fc:	9102e3e0 	add	x0, sp, #0xb8
 300:	f940fbe3 	ldr	x3, [sp, #496]
 304:	f940f7e2 	ldr	x2, [sp, #488]
 308:	94000000 	bl	0 <auto eve::strict_tuple_callable<eve::bit_andnot_t, eve::options<rbr::settings<> >>::behavior<eve::options<rbr::settings<rbr::option<eve::detail::condition_key_t, eve::ignore_none_> > >, double, double, eve::asimd_>(eve::asimd_, eve::options<rbr::settings<rbr::option<eve::detail::condition_key_t, eve::ignore_none_> > > const&, double const&, double const&) const>
 30c:	f940f7e0 	ldr	x0, [sp, #488]
 310:	f900ffe0 	str	x0, [sp, #504]
 314:	f940fbe0 	ldr	x0, [sp, #496]
 318:	f90103e0 	str	x0, [sp, #512]
 31c:	f940ffe0 	ldr	x0, [sp, #504]
 320:	f9400000 	ldr	x0, [x0]
 324:	f90073e0 	str	x0, [sp, #224]
 328:	fd4073e0 	ldr	d0, [sp, #224]
 32c:	d503201f 	nop
 330:	d503201f 	nop
 334:	d503201f 	nop
 338:	d503201f 	nop
 33c:	d503201f 	nop
 340:	d503201f 	nop
 344:	90000000 	adrp	x0, 0 <__stack_chk_guard>
 348:	f9400000 	ldr	x0, [x0]
 34c:	f94107e2 	ldr	x2, [sp, #520]
 350:	f9400001 	ldr	x1, [x0]
 354:	eb010042 	subs	x2, x2, x1
 358:	d2800001 	mov	x1, #0x0                   	// #0
 35c:	54000040 	b.eq	364 <auto eve::strict_tuple_callable<eve::bit_andnot_t, eve::options<rbr::settings<> >>::behavior<eve::options<rbr::settings<rbr::option<eve::detail::condition_key_t, eve::ignore_none_> > >, double, double, eve::asimd_>(eve::asimd_, eve::options<rbr::settings<rbr::option<eve::detail::condition_key_t, eve::ignore_none_> > > const&, double const&, double const&) const+0x364>  // b.none
 360:	94000000 	bl	0 <__stack_chk_fail>
 364:	a94153f3 	ldp	x19, x20, [sp, #16]
 368:	a9425bf5 	ldp	x21, x22, [sp, #32]
 36c:	a94363f7 	ldp	x23, x24, [sp, #48]
 370:	a9446bf9 	ldp	x25, x26, [sp, #64]
 374:	a9407bfd 	ldp	x29, x30, [sp]
 378:	910843ff 	add	sp, sp, #0x210
 37c:	d65f03c0 	ret

Disassembly of section .text._ZN3eve2asIlEC2Ev:

0000000000000000 <eve::as<long>::as()>:
   0:	d10043ff 	sub	sp, sp, #0x10
